(dp0
S'test'
p1
(lp2
(lp3
I10
aI12
aI25
aI27
aI55
aI86
aI87
aI88
aI89
aI93
aI95
aI108
aI110
aI143
aI156
aI158
aI164
aI165
aI174
aI179
aI189
aI194
aI205
aI221
aI240
aI250
aI254
aI257
aI262
aI274
aI289
aI299
aI300
aI302
aI360
aI370
aI383
aI400
aI426
aI428
aI443
aI461
aI473
aI475
aI493
aI515
aI521
aI534
aI539
aI542
aI556
aI558
aI572
aI583
aI612
aI620
aI625
aI629
aI639
aI644
aI658
aI663
aI667
aI671
aI685
aI691
aI701
aI710
aI715
aI721
aI770
aI825
aI855
aI857
aI864
aI868
aI879
aI881
aI897
aI911
aI922
aI927
aI938
aI940
aI941
aI943
aI949
aI952
aI977
aI980
aI998
aI1002
aI1005
aI1011
aI1017
aI1018
aI1026
aI1033
aI1037
aI1045
aI1059
aI1072
aI1074
aI1075
aI1082
aI1090
aI1093
aI1094
aI1095
aI1115
aI1121
aI1122
aI1150
aI1172
aI1179
aI1199
aI1227
aI1253
aI1258
aI1263
aI1264
aa(lp4
I0
aI2
aI6
aI35
aI40
aI60
aI70
aI76
aI97
aI124
aI138
aI148
aI150
aI166
aI180
aI190
aI191
aI199
aI210
aI229
aI237
aI249
aI251
aI259
aI264
aI270
aI308
aI316
aI320
aI329
aI337
aI344
aI354
aI378
aI385
aI404
aI417
aI418
aI423
aI445
aI459
aI463
aI486
aI488
aI492
aI494
aI509
aI518
aI532
aI567
aI576
aI601
aI617
aI630
aI652
aI653
aI656
aI660
aI661
aI679
aI684
aI688
aI713
aI719
aI732
aI735
aI746
aI762
aI764
aI772
aI796
aI807
aI815
aI834
aI836
aI848
aI871
aI873
aI882
aI889
aI894
aI896
aI903
aI904
aI910
aI917
aI921
aI942
aI988
aI1010
aI1012
aI1019
aI1028
aI1032
aI1034
aI1058
aI1060
aI1070
aI1077
aI1081
aI1083
aI1087
aI1101
aI1109
aI1114
aI1138
aI1147
aI1149
aI1154
aI1173
aI1186
aI1187
aI1197
aI1201
aI1207
aI1213
aI1228
aI1232
aI1265
aI1266
aI1267
aa(lp5
I4
aI8
aI17
aI19
aI37
aI58
aI66
aI91
aI121
aI140
aI151
aI172
aI176
aI184
aI203
aI207
aI211
aI212
aI227
aI239
aI256
aI266
aI272
aI277
aI288
aI307
aI317
aI322
aI323
aI350
aI356
aI363
aI367
aI374
aI377
aI382
aI388
aI391
aI413
aI432
aI436
aI437
aI438
aI454
aI469
aI491
aI505
aI513
aI546
aI550
aI551
aI554
aI564
aI579
aI592
aI597
aI611
aI619
aI631
aI634
aI669
aI675
aI678
aI692
aI707
aI728
aI730
aI740
aI744
aI749
aI755
aI766
aI774
aI777
aI778
aI779
aI782
aI795
aI799
aI809
aI822
aI826
aI827
aI828
aI832
aI844
aI845
aI860
aI862
aI865
aI870
aI883
aI899
aI901
aI902
aI913
aI914
aI962
aI965
aI966
aI991
aI1004
aI1006
aI1009
aI1015
aI1022
aI1055
aI1079
aI1084
aI1088
aI1092
aI1108
aI1123
aI1144
aI1157
aI1171
aI1174
aI1219
aI1226
aI1231
aI1239
aa(lp6
I13
aI38
aI42
aI43
aI44
aI46
aI63
aI73
aI74
aI90
aI112
aI115
aI118
aI120
aI128
aI131
aI145
aI168
aI187
aI197
aI201
aI224
aI228
aI234
aI236
aI238
aI253
aI261
aI271
aI296
aI297
aI306
aI321
aI332
aI336
aI343
aI346
aI379
aI381
aI389
aI421
aI430
aI435
aI464
aI466
aI472
aI474
aI478
aI480
aI482
aI484
aI503
aI514
aI520
aI535
aI545
aI562
aI563
aI569
aI581
aI588
aI591
aI593
aI594
aI604
aI615
aI638
aI645
aI696
aI699
aI704
aI712
aI726
aI727
aI748
aI769
aI771
aI775
aI850
aI852
aI863
aI875
aI895
aI945
aI963
aI964
aI967
aI976
aI983
aI986
aI992
aI1007
aI1023
aI1025
aI1050
aI1057
aI1066
aI1073
aI1096
aI1100
aI1104
aI1132
aI1137
aI1162
aI1164
aI1175
aI1177
aI1182
aI1184
aI1189
aI1192
aI1194
aI1200
aI1202
aI1214
aI1217
aI1222
aI1230
aI1254
aI1260
aI1262
aa(lp7
I32
aI51
aI53
aI54
aI57
aI67
aI79
aI81
aI92
aI102
aI103
aI105
aI106
aI107
aI109
aI117
aI123
aI129
aI135
aI137
aI146
aI159
aI178
aI181
aI198
aI208
aI213
aI216
aI235
aI243
aI280
aI285
aI286
aI294
aI326
aI357
aI396
aI397
aI416
aI431
aI440
aI453
aI457
aI458
aI476
aI479
aI483
aI485
aI516
aI526
aI548
aI553
aI568
aI574
aI580
aI582
aI585
aI590
aI614
aI616
aI622
aI628
aI646
aI659
aI665
aI670
aI673
aI697
aI741
aI756
aI781
aI786
aI798
aI830
aI833
aI837
aI847
aI849
aI851
aI853
aI869
aI877
aI892
aI918
aI925
aI928
aI929
aI934
aI950
aI951
aI955
aI959
aI961
aI981
aI994
aI997
aI1047
aI1064
aI1067
aI1085
aI1103
aI1105
aI1110
aI1116
aI1117
aI1120
aI1141
aI1151
aI1153
aI1161
aI1169
aI1170
aI1176
aI1181
aI1196
aI1205
aI1215
aI1229
aI1236
aI1249
aI1252
aa(lp8
I9
aI20
aI21
aI52
aI62
aI82
aI155
aI169
aI192
aI220
aI223
aI226
aI230
aI241
aI248
aI260
aI281
aI283
aI287
aI291
aI293
aI318
aI328
aI338
aI347
aI348
aI371
aI380
aI403
aI414
aI427
aI444
aI447
aI452
aI462
aI465
aI468
aI471
aI477
aI502
aI511
aI525
aI536
aI538
aI544
aI549
aI566
aI595
aI626
aI636
aI641
aI642
aI654
aI662
aI664
aI666
aI668
aI700
aI714
aI720
aI723
aI729
aI734
aI743
aI750
aI761
aI765
aI791
aI792
aI800
aI804
aI811
aI818
aI819
aI824
aI840
aI842
aI856
aI874
aI876
aI880
aI900
aI923
aI937
aI947
aI957
aI975
aI979
aI985
aI990
aI993
aI1000
aI1020
aI1030
aI1035
aI1049
aI1053
aI1062
aI1063
aI1099
aI1107
aI1113
aI1125
aI1127
aI1130
aI1131
aI1134
aI1142
aI1160
aI1163
aI1165
aI1168
aI1188
aI1191
aI1235
aI1242
aI1246
aI1255
aI1256
aI1270
aI1271
aa(lp9
I3
aI14
aI36
aI59
aI64
aI69
aI75
aI78
aI85
aI94
aI100
aI119
aI130
aI141
aI144
aI171
aI177
aI183
aI193
aI200
aI202
aI217
aI245
aI246
aI255
aI273
aI304
aI310
aI313
aI314
aI324
aI351
aI359
aI362
aI368
aI375
aI384
aI401
aI407
aI408
aI420
aI429
aI441
aI487
aI495
aI496
aI499
aI500
aI506
aI510
aI527
aI531
aI541
aI557
aI561
aI575
aI577
aI586
aI599
aI605
aI608
aI609
aI613
aI627
aI632
aI648
aI680
aI695
aI702
aI709
aI718
aI739
aI753
aI759
aI760
aI763
aI767
aI768
aI785
aI790
aI802
aI805
aI810
aI813
aI839
aI843
aI846
aI861
aI867
aI898
aI905
aI907
aI908
aI915
aI919
aI924
aI954
aI969
aI974
aI987
aI996
aI1001
aI1003
aI1036
aI1046
aI1051
aI1071
aI1078
aI1080
aI1102
aI1126
aI1129
aI1136
aI1152
aI1159
aI1198
aI1203
aI1204
aI1210
aI1212
aI1237
aa(lp10
I16
aI18
aI56
aI72
aI77
aI134
aI142
aI149
aI167
aI195
aI196
aI222
aI225
aI242
aI247
aI258
aI268
aI275
aI282
aI284
aI295
aI309
aI319
aI325
aI327
aI335
aI339
aI340
aI345
aI349
aI355
aI364
aI366
aI386
aI387
aI392
aI398
aI409
aI415
aI433
aI489
aI497
aI512
aI517
aI523
aI524
aI528
aI529
aI543
aI547
aI555
aI570
aI573
aI578
aI596
aI602
aI621
aI633
aI637
aI640
aI643
aI650
aI655
aI657
aI672
aI683
aI690
aI693
aI708
aI716
aI725
aI733
aI742
aI747
aI751
aI773
aI783
aI789
aI794
aI803
aI806
aI808
aI820
aI841
aI885
aI886
aI888
aI891
aI916
aI931
aI953
aI956
aI960
aI968
aI970
aI1008
aI1014
aI1027
aI1040
aI1042
aI1056
aI1065
aI1086
aI1097
aI1111
aI1119
aI1124
aI1140
aI1146
aI1158
aI1178
aI1183
aI1193
aI1209
aI1216
aI1218
aI1221
aI1225
aI1233
aI1238
aI1247
aa(lp11
I7
aI11
aI22
aI26
aI29
aI45
aI49
aI80
aI98
aI101
aI111
aI116
aI122
aI125
aI127
aI132
aI136
aI139
aI173
aI204
aI214
aI215
aI219
aI231
aI232
aI233
aI244
aI252
aI267
aI269
aI276
aI278
aI279
aI290
aI292
aI315
aI331
aI333
aI342
aI372
aI393
aI395
aI399
aI402
aI406
aI410
aI419
aI422
aI434
aI446
aI448
aI460
aI481
aI498
aI501
aI508
aI530
aI533
aI537
aI559
aI565
aI610
aI618
aI623
aI674
aI682
aI689
aI694
aI698
aI705
aI706
aI736
aI738
aI745
aI754
aI757
aI780
aI787
aI788
aI793
aI797
aI812
aI817
aI835
aI838
aI854
aI858
aI872
aI884
aI906
aI909
aI920
aI939
aI944
aI971
aI972
aI973
aI978
aI1013
aI1038
aI1043
aI1048
aI1061
aI1068
aI1098
aI1106
aI1118
aI1139
aI1148
aI1156
aI1190
aI1195
aI1220
aI1224
aI1240
aI1241
aI1243
aI1245
aI1250
aI1257
aI1261
aa(lp12
I33
aI41
aI47
aI50
aI61
aI65
aI83
aI84
aI96
aI104
aI114
aI133
aI153
aI154
aI157
aI160
aI161
aI162
aI163
aI170
aI175
aI185
aI188
aI209
aI218
aI263
aI265
aI298
aI301
aI305
aI312
aI330
aI334
aI353
aI358
aI361
aI373
aI376
aI390
aI394
aI405
aI412
aI439
aI442
aI449
aI451
aI455
aI456
aI467
aI490
aI504
aI571
aI584
aI587
aI589
aI598
aI603
aI607
aI624
aI635
aI647
aI649
aI651
aI676
aI686
aI687
aI703
aI737
aI752
aI776
aI801
aI814
aI816
aI823
aI829
aI831
aI859
aI890
aI893
aI912
aI926
aI930
aI933
aI935
aI936
aI946
aI948
aI958
aI982
aI984
aI989
aI995
aI999
aI1016
aI1021
aI1024
aI1029
aI1031
aI1039
aI1041
aI1044
aI1054
aI1069
aI1076
aI1091
aI1112
aI1128
aI1133
aI1135
aI1155
aI1166
aI1167
aI1180
aI1206
aI1208
aI1211
aI1223
aI1234
aI1251
aI1259
aI1269
aasS'train'
p13
(lp14
(lp15
I0
aI2
aI3
aI4
aI6
aI7
aI8
aI9
aI11
aI13
aI14
aI16
aI17
aI18
aI19
aI20
aI21
aI22
aI26
aI29
aI32
aI33
aI35
aI36
aI37
aI38
aI40
aI41
aI42
aI43
aI44
aI45
aI46
aI47
aI49
aI50
aI51
aI52
aI53
aI54
aI56
aI57
aI58
aI59
aI60
aI61
aI62
aI63
aI64
aI65
aI66
aI67
aI69
aI70
aI72
aI73
aI74
aI75
aI76
aI77
aI78
aI79
aI80
aI81
aI82
aI83
aI84
aI85
aI90
aI91
aI92
aI94
aI96
aI97
aI98
aI100
aI101
aI102
aI103
aI104
aI105
aI106
aI107
aI109
aI111
aI112
aI114
aI115
aI116
aI117
aI118
aI119
aI120
aI121
aI122
aI123
aI124
aI125
aI127
aI128
aI129
aI130
aI131
aI132
aI133
aI134
aI135
aI136
aI137
aI138
aI139
aI140
aI141
aI142
aI144
aI145
aI146
aI148
aI149
aI150
aI151
aI153
aI154
aI155
aI157
aI159
aI160
aI161
aI162
aI163
aI166
aI167
aI168
aI169
aI170
aI171
aI172
aI173
aI175
aI176
aI177
aI178
aI180
aI181
aI183
aI184
aI185
aI187
aI188
aI190
aI191
aI192
aI193
aI195
aI196
aI197
aI198
aI199
aI200
aI201
aI202
aI203
aI204
aI207
aI208
aI209
aI210
aI211
aI212
aI213
aI214
aI215
aI216
aI217
aI218
aI219
aI220
aI222
aI223
aI224
aI225
aI226
aI227
aI228
aI229
aI230
aI231
aI232
aI233
aI234
aI235
aI236
aI237
aI238
aI239
aI241
aI242
aI243
aI244
aI245
aI246
aI247
aI248
aI249
aI251
aI252
aI253
aI255
aI256
aI258
aI259
aI260
aI261
aI263
aI264
aI265
aI266
aI267
aI268
aI269
aI270
aI271
aI272
aI273
aI275
aI276
aI277
aI278
aI279
aI280
aI281
aI282
aI283
aI284
aI285
aI286
aI287
aI288
aI290
aI291
aI292
aI293
aI294
aI295
aI296
aI297
aI298
aI301
aI304
aI305
aI306
aI307
aI308
aI309
aI310
aI312
aI313
aI314
aI315
aI316
aI317
aI318
aI319
aI320
aI321
aI322
aI323
aI324
aI325
aI326
aI327
aI328
aI329
aI330
aI331
aI332
aI333
aI334
aI335
aI336
aI337
aI338
aI339
aI340
aI342
aI343
aI344
aI345
aI346
aI347
aI348
aI349
aI350
aI351
aI353
aI354
aI355
aI356
aI357
aI358
aI359
aI361
aI362
aI363
aI364
aI366
aI367
aI368
aI371
aI372
aI373
aI374
aI375
aI376
aI377
aI378
aI379
aI380
aI381
aI382
aI384
aI385
aI386
aI387
aI388
aI389
aI390
aI391
aI392
aI393
aI394
aI395
aI396
aI397
aI398
aI399
aI401
aI402
aI403
aI404
aI405
aI406
aI407
aI408
aI409
aI410
aI412
aI413
aI414
aI415
aI416
aI417
aI418
aI419
aI420
aI421
aI422
aI423
aI427
aI429
aI430
aI431
aI432
aI433
aI434
aI435
aI436
aI437
aI438
aI439
aI440
aI441
aI442
aI444
aI445
aI446
aI447
aI448
aI449
aI451
aI452
aI453
aI454
aI455
aI456
aI457
aI458
aI459
aI460
aI462
aI463
aI464
aI465
aI466
aI467
aI468
aI469
aI471
aI472
aI474
aI476
aI477
aI478
aI479
aI480
aI481
aI482
aI483
aI484
aI485
aI486
aI487
aI488
aI489
aI490
aI491
aI492
aI494
aI495
aI496
aI497
aI498
aI499
aI500
aI501
aI502
aI503
aI504
aI505
aI506
aI508
aI509
aI510
aI511
aI512
aI513
aI514
aI516
aI517
aI518
aI520
aI523
aI524
aI525
aI526
aI527
aI528
aI529
aI530
aI531
aI532
aI533
aI535
aI536
aI537
aI538
aI541
aI543
aI544
aI545
aI546
aI547
aI548
aI549
aI550
aI551
aI553
aI554
aI555
aI557
aI559
aI561
aI562
aI563
aI564
aI565
aI566
aI567
aI568
aI569
aI570
aI571
aI573
aI574
aI575
aI576
aI577
aI578
aI579
aI580
aI581
aI582
aI584
aI585
aI586
aI587
aI588
aI589
aI590
aI591
aI592
aI593
aI594
aI595
aI596
aI597
aI598
aI599
aI601
aI602
aI603
aI604
aI605
aI607
aI608
aI609
aI610
aI611
aI613
aI614
aI615
aI616
aI617
aI618
aI619
aI621
aI622
aI623
aI624
aI626
aI627
aI628
aI630
aI631
aI632
aI633
aI634
aI635
aI636
aI637
aI638
aI640
aI641
aI642
aI643
aI645
aI646
aI647
aI648
aI649
aI650
aI651
aI652
aI653
aI654
aI655
aI656
aI657
aI659
aI660
aI661
aI662
aI664
aI665
aI666
aI668
aI669
aI670
aI672
aI673
aI674
aI675
aI676
aI678
aI679
aI680
aI682
aI683
aI684
aI686
aI687
aI688
aI689
aI690
aI692
aI693
aI694
aI695
aI696
aI697
aI698
aI699
aI700
aI702
aI703
aI704
aI705
aI706
aI707
aI708
aI709
aI712
aI713
aI714
aI716
aI718
aI719
aI720
aI723
aI725
aI726
aI727
aI728
aI729
aI730
aI732
aI733
aI734
aI735
aI736
aI737
aI738
aI739
aI740
aI741
aI742
aI743
aI744
aI745
aI746
aI747
aI748
aI749
aI750
aI751
aI752
aI753
aI754
aI755
aI756
aI757
aI759
aI760
aI761
aI762
aI763
aI764
aI765
aI766
aI767
aI768
aI769
aI771
aI772
aI773
aI774
aI775
aI776
aI777
aI778
aI779
aI780
aI781
aI782
aI783
aI785
aI786
aI787
aI788
aI789
aI790
aI791
aI792
aI793
aI794
aI795
aI796
aI797
aI798
aI799
aI800
aI801
aI802
aI803
aI804
aI805
aI806
aI807
aI808
aI809
aI810
aI811
aI812
aI813
aI814
aI815
aI816
aI817
aI818
aI819
aI820
aI822
aI823
aI824
aI826
aI827
aI828
aI829
aI830
aI831
aI832
aI833
aI834
aI835
aI836
aI837
aI838
aI839
aI840
aI841
aI842
aI843
aI844
aI845
aI846
aI847
aI848
aI849
aI850
aI851
aI852
aI853
aI854
aI856
aI858
aI859
aI860
aI861
aI862
aI863
aI865
aI867
aI869
aI870
aI871
aI872
aI873
aI874
aI875
aI876
aI877
aI880
aI882
aI883
aI884
aI885
aI886
aI888
aI889
aI890
aI891
aI892
aI893
aI894
aI895
aI896
aI898
aI899
aI900
aI901
aI902
aI903
aI904
aI905
aI906
aI907
aI908
aI909
aI910
aI912
aI913
aI914
aI915
aI916
aI917
aI918
aI919
aI920
aI921
aI923
aI924
aI925
aI926
aI928
aI929
aI930
aI931
aI933
aI934
aI935
aI936
aI937
aI939
aI942
aI944
aI945
aI946
aI947
aI948
aI950
aI951
aI953
aI954
aI955
aI956
aI957
aI958
aI959
aI960
aI961
aI962
aI963
aI964
aI965
aI966
aI967
aI968
aI969
aI970
aI971
aI972
aI973
aI974
aI975
aI976
aI978
aI979
aI981
aI982
aI983
aI984
aI985
aI986
aI987
aI988
aI989
aI990
aI991
aI992
aI993
aI994
aI995
aI996
aI997
aI999
aI1000
aI1001
aI1003
aI1004
aI1006
aI1007
aI1008
aI1009
aI1010
aI1012
aI1013
aI1014
aI1015
aI1016
aI1019
aI1020
aI1021
aI1022
aI1023
aI1024
aI1025
aI1027
aI1028
aI1029
aI1030
aI1031
aI1032
aI1034
aI1035
aI1036
aI1038
aI1039
aI1040
aI1041
aI1042
aI1043
aI1044
aI1046
aI1047
aI1048
aI1049
aI1050
aI1051
aI1053
aI1054
aI1055
aI1056
aI1057
aI1058
aI1060
aI1061
aI1062
aI1063
aI1064
aI1065
aI1066
aI1067
aI1068
aI1069
aI1070
aI1071
aI1073
aI1076
aI1077
aI1078
aI1079
aI1080
aI1081
aI1083
aI1084
aI1085
aI1086
aI1087
aI1088
aI1091
aI1092
aI1096
aI1097
aI1098
aI1099
aI1100
aI1101
aI1102
aI1103
aI1104
aI1105
aI1106
aI1107
aI1108
aI1109
aI1110
aI1111
aI1112
aI1113
aI1114
aI1116
aI1117
aI1118
aI1119
aI1120
aI1123
aI1124
aI1125
aI1126
aI1127
aI1128
aI1129
aI1130
aI1131
aI1132
aI1133
aI1134
aI1135
aI1136
aI1137
aI1138
aI1139
aI1140
aI1141
aI1142
aI1144
aI1146
aI1147
aI1148
aI1149
aI1151
aI1152
aI1153
aI1154
aI1155
aI1156
aI1157
aI1158
aI1159
aI1160
aI1161
aI1162
aI1163
aI1164
aI1165
aI1166
aI1167
aI1168
aI1169
aI1170
aI1171
aI1173
aI1174
aI1175
aI1176
aI1177
aI1178
aI1180
aI1181
aI1182
aI1183
aI1184
aI1186
aI1187
aI1188
aI1189
aI1190
aI1191
aI1192
aI1193
aI1194
aI1195
aI1196
aI1197
aI1198
aI1200
aI1201
aI1202
aI1203
aI1204
aI1205
aI1206
aI1207
aI1208
aI1209
aI1210
aI1211
aI1212
aI1213
aI1214
aI1215
aI1216
aI1217
aI1218
aI1219
aI1220
aI1221
aI1222
aI1223
aI1224
aI1225
aI1226
aI1228
aI1229
aI1230
aI1231
aI1232
aI1233
aI1234
aI1235
aI1236
aI1237
aI1238
aI1239
aI1240
aI1241
aI1242
aI1243
aI1245
aI1246
aI1247
aI1249
aI1250
aI1251
aI1252
aI1254
aI1255
aI1256
aI1257
aI1259
aI1260
aI1261
aI1262
aI1265
aI1266
aI1267
aI1269
aI1270
aI1271
aa(lp16
I3
aI4
aI7
aI8
aI9
aI10
aI11
aI12
aI13
aI14
aI16
aI17
aI18
aI19
aI20
aI21
aI22
aI25
aI26
aI27
aI29
aI32
aI33
aI36
aI37
aI38
aI41
aI42
aI43
aI44
aI45
aI46
aI47
aI49
aI50
aI51
aI52
aI53
aI54
aI55
aI56
aI57
aI58
aI59
aI61
aI62
aI63
aI64
aI65
aI66
aI67
aI69
aI72
aI73
aI74
aI75
aI77
aI78
aI79
aI80
aI81
aI82
aI83
aI84
aI85
aI86
aI87
aI88
aI89
aI90
aI91
aI92
aI93
aI94
aI95
aI96
aI98
aI100
aI101
aI102
aI103
aI104
aI105
aI106
aI107
aI108
aI109
aI110
aI111
aI112
aI114
aI115
aI116
aI117
aI118
aI119
aI120
aI121
aI122
aI123
aI125
aI127
aI128
aI129
aI130
aI131
aI132
aI133
aI134
aI135
aI136
aI137
aI139
aI140
aI141
aI142
aI143
aI144
aI145
aI146
aI149
aI151
aI153
aI154
aI155
aI156
aI157
aI158
aI159
aI160
aI161
aI162
aI163
aI164
aI165
aI167
aI168
aI169
aI170
aI171
aI172
aI173
aI174
aI175
aI176
aI177
aI178
aI179
aI181
aI183
aI184
aI185
aI187
aI188
aI189
aI192
aI193
aI194
aI195
aI196
aI197
aI198
aI200
aI201
aI202
aI203
aI204
aI205
aI207
aI208
aI209
aI211
aI212
aI213
aI214
aI215
aI216
aI217
aI218
aI219
aI220
aI221
aI222
aI223
aI224
aI225
aI226
aI227
aI228
aI230
aI231
aI232
aI233
aI234
aI235
aI236
aI238
aI239
aI240
aI241
aI242
aI243
aI244
aI245
aI246
aI247
aI248
aI250
aI252
aI253
aI254
aI255
aI256
aI257
aI258
aI260
aI261
aI262
aI263
aI265
aI266
aI267
aI268
aI269
aI271
aI272
aI273
aI274
aI275
aI276
aI277
aI278
aI279
aI280
aI281
aI282
aI283
aI284
aI285
aI286
aI287
aI288
aI289
aI290
aI291
aI292
aI293
aI294
aI295
aI296
aI297
aI298
aI299
aI300
aI301
aI302
aI304
aI305
aI306
aI307
aI309
aI310
aI312
aI313
aI314
aI315
aI317
aI318
aI319
aI321
aI322
aI323
aI324
aI325
aI326
aI327
aI328
aI330
aI331
aI332
aI333
aI334
aI335
aI336
aI338
aI339
aI340
aI342
aI343
aI345
aI346
aI347
aI348
aI349
aI350
aI351
aI353
aI355
aI356
aI357
aI358
aI359
aI360
aI361
aI362
aI363
aI364
aI366
aI367
aI368
aI370
aI371
aI372
aI373
aI374
aI375
aI376
aI377
aI379
aI380
aI381
aI382
aI383
aI384
aI386
aI387
aI388
aI389
aI390
aI391
aI392
aI393
aI394
aI395
aI396
aI397
aI398
aI399
aI400
aI401
aI402
aI403
aI405
aI406
aI407
aI408
aI409
aI410
aI412
aI413
aI414
aI415
aI416
aI419
aI420
aI421
aI422
aI426
aI427
aI428
aI429
aI430
aI431
aI432
aI433
aI434
aI435
aI436
aI437
aI438
aI439
aI440
aI441
aI442
aI443
aI444
aI446
aI447
aI448
aI449
aI451
aI452
aI453
aI454
aI455
aI456
aI457
aI458
aI460
aI461
aI462
aI464
aI465
aI466
aI467
aI468
aI469
aI471
aI472
aI473
aI474
aI475
aI476
aI477
aI478
aI479
aI480
aI481
aI482
aI483
aI484
aI485
aI487
aI489
aI490
aI491
aI493
aI495
aI496
aI497
aI498
aI499
aI500
aI501
aI502
aI503
aI504
aI505
aI506
aI508
aI510
aI511
aI512
aI513
aI514
aI515
aI516
aI517
aI520
aI521
aI523
aI524
aI525
aI526
aI527
aI528
aI529
aI530
aI531
aI533
aI534
aI535
aI536
aI537
aI538
aI539
aI541
aI542
aI543
aI544
aI545
aI546
aI547
aI548
aI549
aI550
aI551
aI553
aI554
aI555
aI556
aI557
aI558
aI559
aI561
aI562
aI563
aI564
aI565
aI566
aI568
aI569
aI570
aI571
aI572
aI573
aI574
aI575
aI577
aI578
aI579
aI580
aI581
aI582
aI583
aI584
aI585
aI586
aI587
aI588
aI589
aI590
aI591
aI592
aI593
aI594
aI595
aI596
aI597
aI598
aI599
aI602
aI603
aI604
aI605
aI607
aI608
aI609
aI610
aI611
aI612
aI613
aI614
aI615
aI616
aI618
aI619
aI620
aI621
aI622
aI623
aI624
aI625
aI626
aI627
aI628
aI629
aI631
aI632
aI633
aI634
aI635
aI636
aI637
aI638
aI639
aI640
aI641
aI642
aI643
aI644
aI645
aI646
aI647
aI648
aI649
aI650
aI651
aI654
aI655
aI657
aI658
aI659
aI662
aI663
aI664
aI665
aI666
aI667
aI668
aI669
aI670
aI671
aI672
aI673
aI674
aI675
aI676
aI678
aI680
aI682
aI683
aI685
aI686
aI687
aI689
aI690
aI691
aI692
aI693
aI694
aI695
aI696
aI697
aI698
aI699
aI700
aI701
aI702
aI703
aI704
aI705
aI706
aI707
aI708
aI709
aI710
aI712
aI714
aI715
aI716
aI718
aI720
aI721
aI723
aI725
aI726
aI727
aI728
aI729
aI730
aI733
aI734
aI736
aI737
aI738
aI739
aI740
aI741
aI742
aI743
aI744
aI745
aI747
aI748
aI749
aI750
aI751
aI752
aI753
aI754
aI755
aI756
aI757
aI759
aI760
aI761
aI763
aI765
aI766
aI767
aI768
aI769
aI770
aI771
aI773
aI774
aI775
aI776
aI777
aI778
aI779
aI780
aI781
aI782
aI783
aI785
aI786
aI787
aI788
aI789
aI790
aI791
aI792
aI793
aI794
aI795
aI797
aI798
aI799
aI800
aI801
aI802
aI803
aI804
aI805
aI806
aI808
aI809
aI810
aI811
aI812
aI813
aI814
aI816
aI817
aI818
aI819
aI820
aI822
aI823
aI824
aI825
aI826
aI827
aI828
aI829
aI830
aI831
aI832
aI833
aI835
aI837
aI838
aI839
aI840
aI841
aI842
aI843
aI844
aI845
aI846
aI847
aI849
aI850
aI851
aI852
aI853
aI854
aI855
aI856
aI857
aI858
aI859
aI860
aI861
aI862
aI863
aI864
aI865
aI867
aI868
aI869
aI870
aI872
aI874
aI875
aI876
aI877
aI879
aI880
aI881
aI883
aI884
aI885
aI886
aI888
aI890
aI891
aI892
aI893
aI895
aI897
aI898
aI899
aI900
aI901
aI902
aI905
aI906
aI907
aI908
aI909
aI911
aI912
aI913
aI914
aI915
aI916
aI918
aI919
aI920
aI922
aI923
aI924
aI925
aI926
aI927
aI928
aI929
aI930
aI931
aI933
aI934
aI935
aI936
aI937
aI938
aI939
aI940
aI941
aI943
aI944
aI945
aI946
aI947
aI948
aI949
aI950
aI951
aI952
aI953
aI954
aI955
aI956
aI957
aI958
aI959
aI960
aI961
aI962
aI963
aI964
aI965
aI966
aI967
aI968
aI969
aI970
aI971
aI972
aI973
aI974
aI975
aI976
aI977
aI978
aI979
aI980
aI981
aI982
aI983
aI984
aI985
aI986
aI987
aI989
aI990
aI991
aI992
aI993
aI994
aI995
aI996
aI997
aI998
aI999
aI1000
aI1001
aI1002
aI1003
aI1004
aI1005
aI1006
aI1007
aI1008
aI1009
aI1011
aI1013
aI1014
aI1015
aI1016
aI1017
aI1018
aI1020
aI1021
aI1022
aI1023
aI1024
aI1025
aI1026
aI1027
aI1029
aI1030
aI1031
aI1033
aI1035
aI1036
aI1037
aI1038
aI1039
aI1040
aI1041
aI1042
aI1043
aI1044
aI1045
aI1046
aI1047
aI1048
aI1049
aI1050
aI1051
aI1053
aI1054
aI1055
aI1056
aI1057
aI1059
aI1061
aI1062
aI1063
aI1064
aI1065
aI1066
aI1067
aI1068
aI1069
aI1071
aI1072
aI1073
aI1074
aI1075
aI1076
aI1078
aI1079
aI1080
aI1082
aI1084
aI1085
aI1086
aI1088
aI1090
aI1091
aI1092
aI1093
aI1094
aI1095
aI1096
aI1097
aI1098
aI1099
aI1100
aI1102
aI1103
aI1104
aI1105
aI1106
aI1107
aI1108
aI1110
aI1111
aI1112
aI1113
aI1115
aI1116
aI1117
aI1118
aI1119
aI1120
aI1121
aI1122
aI1123
aI1124
aI1125
aI1126
aI1127
aI1128
aI1129
aI1130
aI1131
aI1132
aI1133
aI1134
aI1135
aI1136
aI1137
aI1139
aI1140
aI1141
aI1142
aI1144
aI1146
aI1148
aI1150
aI1151
aI1152
aI1153
aI1155
aI1156
aI1157
aI1158
aI1159
aI1160
aI1161
aI1162
aI1163
aI1164
aI1165
aI1166
aI1167
aI1168
aI1169
aI1170
aI1171
aI1172
aI1174
aI1175
aI1176
aI1177
aI1178
aI1179
aI1180
aI1181
aI1182
aI1183
aI1184
aI1188
aI1189
aI1190
aI1191
aI1192
aI1193
aI1194
aI1195
aI1196
aI1198
aI1199
aI1200
aI1202
aI1203
aI1204
aI1205
aI1206
aI1208
aI1209
aI1210
aI1211
aI1212
aI1214
aI1215
aI1216
aI1217
aI1218
aI1219
aI1220
aI1221
aI1222
aI1223
aI1224
aI1225
aI1226
aI1227
aI1229
aI1230
aI1231
aI1233
aI1234
aI1235
aI1236
aI1237
aI1238
aI1239
aI1240
aI1241
aI1242
aI1243
aI1245
aI1246
aI1247
aI1249
aI1250
aI1251
aI1252
aI1253
aI1254
aI1255
aI1256
aI1257
aI1258
aI1259
aI1260
aI1261
aI1262
aI1263
aI1264
aI1269
aI1270
aI1271
aa(lp17
I0
aI2
aI3
aI6
aI7
aI9
aI10
aI11
aI12
aI13
aI14
aI16
aI18
aI20
aI21
aI22
aI25
aI26
aI27
aI29
aI32
aI33
aI35
aI36
aI38
aI40
aI41
aI42
aI43
aI44
aI45
aI46
aI47
aI49
aI50
aI51
aI52
aI53
aI54
aI55
aI56
aI57
aI59
aI60
aI61
aI62
aI63
aI64
aI65
aI67
aI69
aI70
aI72
aI73
aI74
aI75
aI76
aI77
aI78
aI79
aI80
aI81
aI82
aI83
aI84
aI85
aI86
aI87
aI88
aI89
aI90
aI92
aI93
aI94
aI95
aI96
aI97
aI98
aI100
aI101
aI102
aI103
aI104
aI105
aI106
aI107
aI108
aI109
aI110
aI111
aI112
aI114
aI115
aI116
aI117
aI118
aI119
aI120
aI122
aI123
aI124
aI125
aI127
aI128
aI129
aI130
aI131
aI132
aI133
aI134
aI135
aI136
aI137
aI138
aI139
aI141
aI142
aI143
aI144
aI145
aI146
aI148
aI149
aI150
aI153
aI154
aI155
aI156
aI157
aI158
aI159
aI160
aI161
aI162
aI163
aI164
aI165
aI166
aI167
aI168
aI169
aI170
aI171
aI173
aI174
aI175
aI177
aI178
aI179
aI180
aI181
aI183
aI185
aI187
aI188
aI189
aI190
aI191
aI192
aI193
aI194
aI195
aI196
aI197
aI198
aI199
aI200
aI201
aI202
aI204
aI205
aI208
aI209
aI210
aI213
aI214
aI215
aI216
aI217
aI218
aI219
aI220
aI221
aI222
aI223
aI224
aI225
aI226
aI228
aI229
aI230
aI231
aI232
aI233
aI234
aI235
aI236
aI237
aI238
aI240
aI241
aI242
aI243
aI244
aI245
aI246
aI247
aI248
aI249
aI250
aI251
aI252
aI253
aI254
aI255
aI257
aI258
aI259
aI260
aI261
aI262
aI263
aI264
aI265
aI267
aI268
aI269
aI270
aI271
aI273
aI274
aI275
aI276
aI278
aI279
aI280
aI281
aI282
aI283
aI284
aI285
aI286
aI287
aI289
aI290
aI291
aI292
aI293
aI294
aI295
aI296
aI297
aI298
aI299
aI300
aI301
aI302
aI304
aI305
aI306
aI308
aI309
aI310
aI312
aI313
aI314
aI315
aI316
aI318
aI319
aI320
aI321
aI324
aI325
aI326
aI327
aI328
aI329
aI330
aI331
aI332
aI333
aI334
aI335
aI336
aI337
aI338
aI339
aI340
aI342
aI343
aI344
aI345
aI346
aI347
aI348
aI349
aI351
aI353
aI354
aI355
aI357
aI358
aI359
aI360
aI361
aI362
aI364
aI366
aI368
aI370
aI371
aI372
aI373
aI375
aI376
aI378
aI379
aI380
aI381
aI383
aI384
aI385
aI386
aI387
aI389
aI390
aI392
aI393
aI394
aI395
aI396
aI397
aI398
aI399
aI400
aI401
aI402
aI403
aI404
aI405
aI406
aI407
aI408
aI409
aI410
aI412
aI414
aI415
aI416
aI417
aI418
aI419
aI420
aI421
aI422
aI423
aI426
aI427
aI428
aI429
aI430
aI431
aI433
aI434
aI435
aI439
aI440
aI441
aI442
aI443
aI444
aI445
aI446
aI447
aI448
aI449
aI451
aI452
aI453
aI455
aI456
aI457
aI458
aI459
aI460
aI461
aI462
aI463
aI464
aI465
aI466
aI467
aI468
aI471
aI472
aI473
aI474
aI475
aI476
aI477
aI478
aI479
aI480
aI481
aI482
aI483
aI484
aI485
aI486
aI487
aI488
aI489
aI490
aI492
aI493
aI494
aI495
aI496
aI497
aI498
aI499
aI500
aI501
aI502
aI503
aI504
aI506
aI508
aI509
aI510
aI511
aI512
aI514
aI515
aI516
aI517
aI518
aI520
aI521
aI523
aI524
aI525
aI526
aI527
aI528
aI529
aI530
aI531
aI532
aI533
aI534
aI535
aI536
aI537
aI538
aI539
aI541
aI542
aI543
aI544
aI545
aI547
aI548
aI549
aI553
aI555
aI556
aI557
aI558
aI559
aI561
aI562
aI563
aI565
aI566
aI567
aI568
aI569
aI570
aI571
aI572
aI573
aI574
aI575
aI576
aI577
aI578
aI580
aI581
aI582
aI583
aI584
aI585
aI586
aI587
aI588
aI589
aI590
aI591
aI593
aI594
aI595
aI596
aI598
aI599
aI601
aI602
aI603
aI604
aI605
aI607
aI608
aI609
aI610
aI612
aI613
aI614
aI615
aI616
aI617
aI618
aI620
aI621
aI622
aI623
aI624
aI625
aI626
aI627
aI628
aI629
aI630
aI632
aI633
aI635
aI636
aI637
aI638
aI639
aI640
aI641
aI642
aI643
aI644
aI645
aI646
aI647
aI648
aI649
aI650
aI651
aI652
aI653
aI654
aI655
aI656
aI657
aI658
aI659
aI660
aI661
aI662
aI663
aI664
aI665
aI666
aI667
aI668
aI670
aI671
aI672
aI673
aI674
aI676
aI679
aI680
aI682
aI683
aI684
aI685
aI686
aI687
aI688
aI689
aI690
aI691
aI693
aI694
aI695
aI696
aI697
aI698
aI699
aI700
aI701
aI702
aI703
aI704
aI705
aI706
aI708
aI709
aI710
aI712
aI713
aI714
aI715
aI716
aI718
aI719
aI720
aI721
aI723
aI725
aI726
aI727
aI729
aI732
aI733
aI734
aI735
aI736
aI737
aI738
aI739
aI741
aI742
aI743
aI745
aI746
aI747
aI748
aI750
aI751
aI752
aI753
aI754
aI756
aI757
aI759
aI760
aI761
aI762
aI763
aI764
aI765
aI767
aI768
aI769
aI770
aI771
aI772
aI773
aI775
aI776
aI780
aI781
aI783
aI785
aI786
aI787
aI788
aI789
aI790
aI791
aI792
aI793
aI794
aI796
aI797
aI798
aI800
aI801
aI802
aI803
aI804
aI805
aI806
aI807
aI808
aI810
aI811
aI812
aI813
aI814
aI815
aI816
aI817
aI818
aI819
aI820
aI823
aI824
aI825
aI829
aI830
aI831
aI833
aI834
aI835
aI836
aI837
aI838
aI839
aI840
aI841
aI842
aI843
aI846
aI847
aI848
aI849
aI850
aI851
aI852
aI853
aI854
aI855
aI856
aI857
aI858
aI859
aI861
aI863
aI864
aI867
aI868
aI869
aI871
aI872
aI873
aI874
aI875
aI876
aI877
aI879
aI880
aI881
aI882
aI884
aI885
aI886
aI888
aI889
aI890
aI891
aI892
aI893
aI894
aI895
aI896
aI897
aI898
aI900
aI903
aI904
aI905
aI906
aI907
aI908
aI909
aI910
aI911
aI912
aI915
aI916
aI917
aI918
aI919
aI920
aI921
aI922
aI923
aI924
aI925
aI926
aI927
aI928
aI929
aI930
aI931
aI933
aI934
aI935
aI936
aI937
aI938
aI939
aI940
aI941
aI942
aI943
aI944
aI945
aI946
aI947
aI948
aI949
aI950
aI951
aI952
aI953
aI954
aI955
aI956
aI957
aI958
aI959
aI960
aI961
aI963
aI964
aI967
aI968
aI969
aI970
aI971
aI972
aI973
aI974
aI975
aI976
aI977
aI978
aI979
aI980
aI981
aI982
aI983
aI984
aI985
aI986
aI987
aI988
aI989
aI990
aI992
aI993
aI994
aI995
aI996
aI997
aI998
aI999
aI1000
aI1001
aI1002
aI1003
aI1005
aI1007
aI1008
aI1010
aI1011
aI1012
aI1013
aI1014
aI1016
aI1017
aI1018
aI1019
aI1020
aI1021
aI1023
aI1024
aI1025
aI1026
aI1027
aI1028
aI1029
aI1030
aI1031
aI1032
aI1033
aI1034
aI1035
aI1036
aI1037
aI1038
aI1039
aI1040
aI1041
aI1042
aI1043
aI1044
aI1045
aI1046
aI1047
aI1048
aI1049
aI1050
aI1051
aI1053
aI1054
aI1056
aI1057
aI1058
aI1059
aI1060
aI1061
aI1062
aI1063
aI1064
aI1065
aI1066
aI1067
aI1068
aI1069
aI1070
aI1071
aI1072
aI1073
aI1074
aI1075
aI1076
aI1077
aI1078
aI1080
aI1081
aI1082
aI1083
aI1085
aI1086
aI1087
aI1090
aI1091
aI1093
aI1094
aI1095
aI1096
aI1097
aI1098
aI1099
aI1100
aI1101
aI1102
aI1103
aI1104
aI1105
aI1106
aI1107
aI1109
aI1110
aI1111
aI1112
aI1113
aI1114
aI1115
aI1116
aI1117
aI1118
aI1119
aI1120
aI1121
aI1122
aI1124
aI1125
aI1126
aI1127
aI1128
aI1129
aI1130
aI1131
aI1132
aI1133
aI1134
aI1135
aI1136
aI1137
aI1138
aI1139
aI1140
aI1141
aI1142
aI1146
aI1147
aI1148
aI1149
aI1150
aI1151
aI1152
aI1153
aI1154
aI1155
aI1156
aI1158
aI1159
aI1160
aI1161
aI1162
aI1163
aI1164
aI1165
aI1166
aI1167
aI1168
aI1169
aI1170
aI1172
aI1173
aI1175
aI1176
aI1177
aI1178
aI1179
aI1180
aI1181
aI1182
aI1183
aI1184
aI1186
aI1187
aI1188
aI1189
aI1190
aI1191
aI1192
aI1193
aI1194
aI1195
aI1196
aI1197
aI1198
aI1199
aI1200
aI1201
aI1202
aI1203
aI1204
aI1205
aI1206
aI1207
aI1208
aI1209
aI1210
aI1211
aI1212
aI1213
aI1214
aI1215
aI1216
aI1217
aI1218
aI1220
aI1221
aI1222
aI1223
aI1224
aI1225
aI1227
aI1228
aI1229
aI1230
aI1232
aI1233
aI1234
aI1235
aI1236
aI1237
aI1238
aI1240
aI1241
aI1242
aI1243
aI1245
aI1246
aI1247
aI1249
aI1250
aI1251
aI1252
aI1253
aI1254
aI1255
aI1256
aI1257
aI1258
aI1259
aI1260
aI1261
aI1262
aI1263
aI1264
aI1265
aI1266
aI1267
aI1269
aI1270
aI1271
aa(lp18
I0
aI2
aI3
aI4
aI6
aI7
aI8
aI9
aI10
aI11
aI12
aI14
aI16
aI17
aI18
aI19
aI20
aI21
aI22
aI25
aI26
aI27
aI29
aI32
aI33
aI35
aI36
aI37
aI40
aI41
aI45
aI47
aI49
aI50
aI51
aI52
aI53
aI54
aI55
aI56
aI57
aI58
aI59
aI60
aI61
aI62
aI64
aI65
aI66
aI67
aI69
aI70
aI72
aI75
aI76
aI77
aI78
aI79
aI80
aI81
aI82
aI83
aI84
aI85
aI86
aI87
aI88
aI89
aI91
aI92
aI93
aI94
aI95
aI96
aI97
aI98
aI100
aI101
aI102
aI103
aI104
aI105
aI106
aI107
aI108
aI109
aI110
aI111
aI114
aI116
aI117
aI119
aI121
aI122
aI123
aI124
aI125
aI127
aI129
aI130
aI132
aI133
aI134
aI135
aI136
aI137
aI138
aI139
aI140
aI141
aI142
aI143
aI144
aI146
aI148
aI149
aI150
aI151
aI153
aI154
aI155
aI156
aI157
aI158
aI159
aI160
aI161
aI162
aI163
aI164
aI165
aI166
aI167
aI169
aI170
aI171
aI172
aI173
aI174
aI175
aI176
aI177
aI178
aI179
aI180
aI181
aI183
aI184
aI185
aI188
aI189
aI190
aI191
aI192
aI193
aI194
aI195
aI196
aI198
aI199
aI200
aI202
aI203
aI204
aI205
aI207
aI208
aI209
aI210
aI211
aI212
aI213
aI214
aI215
aI216
aI217
aI218
aI219
aI220
aI221
aI222
aI223
aI225
aI226
aI227
aI229
aI230
aI231
aI232
aI233
aI235
aI237
aI239
aI240
aI241
aI242
aI243
aI244
aI245
aI246
aI247
aI248
aI249
aI250
aI251
aI252
aI254
aI255
aI256
aI257
aI258
aI259
aI260
aI262
aI263
aI264
aI265
aI266
aI267
aI268
aI269
aI270
aI272
aI273
aI274
aI275
aI276
aI277
aI278
aI279
aI280
aI281
aI282
aI283
aI284
aI285
aI286
aI287
aI288
aI289
aI290
aI291
aI292
aI293
aI294
aI295
aI298
aI299
aI300
aI301
aI302
aI304
aI305
aI307
aI308
aI309
aI310
aI312
aI313
aI314
aI315
aI316
aI317
aI318
aI319
aI320
aI322
aI323
aI324
aI325
aI326
aI327
aI328
aI329
aI330
aI331
aI333
aI334
aI335
aI337
aI338
aI339
aI340
aI342
aI344
aI345
aI347
aI348
aI349
aI350
aI351
aI353
aI354
aI355
aI356
aI357
aI358
aI359
aI360
aI361
aI362
aI363
aI364
aI366
aI367
aI368
aI370
aI371
aI372
aI373
aI374
aI375
aI376
aI377
aI378
aI380
aI382
aI383
aI384
aI385
aI386
aI387
aI388
aI390
aI391
aI392
aI393
aI394
aI395
aI396
aI397
aI398
aI399
aI400
aI401
aI402
aI403
aI404
aI405
aI406
aI407
aI408
aI409
aI410
aI412
aI413
aI414
aI415
aI416
aI417
aI418
aI419
aI420
aI422
aI423
aI426
aI427
aI428
aI429
aI431
aI432
aI433
aI434
aI436
aI437
aI438
aI439
aI440
aI441
aI442
aI443
aI444
aI445
aI446
aI447
aI448
aI449
aI451
aI452
aI453
aI454
aI455
aI456
aI457
aI458
aI459
aI460
aI461
aI462
aI463
aI465
aI467
aI468
aI469
aI471
aI473
aI475
aI476
aI477
aI479
aI481
aI483
aI485
aI486
aI487
aI488
aI489
aI490
aI491
aI492
aI493
aI494
aI495
aI496
aI497
aI498
aI499
aI500
aI501
aI502
aI504
aI505
aI506
aI508
aI509
aI510
aI511
aI512
aI513
aI515
aI516
aI517
aI518
aI521
aI523
aI524
aI525
aI526
aI527
aI528
aI529
aI530
aI531
aI532
aI533
aI534
aI536
aI537
aI538
aI539
aI541
aI542
aI543
aI544
aI546
aI547
aI548
aI549
aI550
aI551
aI553
aI554
aI555
aI556
aI557
aI558
aI559
aI561
aI564
aI565
aI566
aI567
aI568
aI570
aI571
aI572
aI573
aI574
aI575
aI576
aI577
aI578
aI579
aI580
aI582
aI583
aI584
aI585
aI586
aI587
aI589
aI590
aI592
aI595
aI596
aI597
aI598
aI599
aI601
aI602
aI603
aI605
aI607
aI608
aI609
aI610
aI611
aI612
aI613
aI614
aI616
aI617
aI618
aI619
aI620
aI621
aI622
aI623
aI624
aI625
aI626
aI627
aI628
aI629
aI630
aI631
aI632
aI633
aI634
aI635
aI636
aI637
aI639
aI640
aI641
aI642
aI643
aI644
aI646
aI647
aI648
aI649
aI650
aI651
aI652
aI653
aI654
aI655
aI656
aI657
aI658
aI659
aI660
aI661
aI662
aI663
aI664
aI665
aI666
aI667
aI668
aI669
aI670
aI671
aI672
aI673
aI674
aI675
aI676
aI678
aI679
aI680
aI682
aI683
aI684
aI685
aI686
aI687
aI688
aI689
aI690
aI691
aI692
aI693
aI694
aI695
aI697
aI698
aI700
aI701
aI702
aI703
aI705
aI706
aI707
aI708
aI709
aI710
aI713
aI714
aI715
aI716
aI718
aI719
aI720
aI721
aI723
aI725
aI728
aI729
aI730
aI732
aI733
aI734
aI735
aI736
aI737
aI738
aI739
aI740
aI741
aI742
aI743
aI744
aI745
aI746
aI747
aI749
aI750
aI751
aI752
aI753
aI754
aI755
aI756
aI757
aI759
aI760
aI761
aI762
aI763
aI764
aI765
aI766
aI767
aI768
aI770
aI772
aI773
aI774
aI776
aI777
aI778
aI779
aI780
aI781
aI782
aI783
aI785
aI786
aI787
aI788
aI789
aI790
aI791
aI792
aI793
aI794
aI795
aI796
aI797
aI798
aI799
aI800
aI801
aI802
aI803
aI804
aI805
aI806
aI807
aI808
aI809
aI810
aI811
aI812
aI813
aI814
aI815
aI816
aI817
aI818
aI819
aI820
aI822
aI823
aI824
aI825
aI826
aI827
aI828
aI829
aI830
aI831
aI832
aI833
aI834
aI835
aI836
aI837
aI838
aI839
aI840
aI841
aI842
aI843
aI844
aI845
aI846
aI847
aI848
aI849
aI851
aI853
aI854
aI855
aI856
aI857
aI858
aI859
aI860
aI861
aI862
aI864
aI865
aI867
aI868
aI869
aI870
aI871
aI872
aI873
aI874
aI876
aI877
aI879
aI880
aI881
aI882
aI883
aI884
aI885
aI886
aI888
aI889
aI890
aI891
aI892
aI893
aI894
aI896
aI897
aI898
aI899
aI900
aI901
aI902
aI903
aI904
aI905
aI906
aI907
aI908
aI909
aI910
aI911
aI912
aI913
aI914
aI915
aI916
aI917
aI918
aI919
aI920
aI921
aI922
aI923
aI924
aI925
aI926
aI927
aI928
aI929
aI930
aI931
aI933
aI934
aI935
aI936
aI937
aI938
aI939
aI940
aI941
aI942
aI943
aI944
aI946
aI947
aI948
aI949
aI950
aI951
aI952
aI953
aI954
aI955
aI956
aI957
aI958
aI959
aI960
aI961
aI962
aI965
aI966
aI968
aI969
aI970
aI971
aI972
aI973
aI974
aI975
aI977
aI978
aI979
aI980
aI981
aI982
aI984
aI985
aI987
aI988
aI989
aI990
aI991
aI993
aI994
aI995
aI996
aI997
aI998
aI999
aI1000
aI1001
aI1002
aI1003
aI1004
aI1005
aI1006
aI1008
aI1009
aI1010
aI1011
aI1012
aI1013
aI1014
aI1015
aI1016
aI1017
aI1018
aI1019
aI1020
aI1021
aI1022
aI1024
aI1026
aI1027
aI1028
aI1029
aI1030
aI1031
aI1032
aI1033
aI1034
aI1035
aI1036
aI1037
aI1038
aI1039
aI1040
aI1041
aI1042
aI1043
aI1044
aI1045
aI1046
aI1047
aI1048
aI1049
aI1051
aI1053
aI1054
aI1055
aI1056
aI1058
aI1059
aI1060
aI1061
aI1062
aI1063
aI1064
aI1065
aI1067
aI1068
aI1069
aI1070
aI1071
aI1072
aI1074
aI1075
aI1076
aI1077
aI1078
aI1079
aI1080
aI1081
aI1082
aI1083
aI1084
aI1085
aI1086
aI1087
aI1088
aI1090
aI1091
aI1092
aI1093
aI1094
aI1095
aI1097
aI1098
aI1099
aI1101
aI1102
aI1103
aI1105
aI1106
aI1107
aI1108
aI1109
aI1110
aI1111
aI1112
aI1113
aI1114
aI1115
aI1116
aI1117
aI1118
aI1119
aI1120
aI1121
aI1122
aI1123
aI1124
aI1125
aI1126
aI1127
aI1128
aI1129
aI1130
aI1131
aI1133
aI1134
aI1135
aI1136
aI1138
aI1139
aI1140
aI1141
aI1142
aI1144
aI1146
aI1147
aI1148
aI1149
aI1150
aI1151
aI1152
aI1153
aI1154
aI1155
aI1156
aI1157
aI1158
aI1159
aI1160
aI1161
aI1163
aI1165
aI1166
aI1167
aI1168
aI1169
aI1170
aI1171
aI1172
aI1173
aI1174
aI1176
aI1178
aI1179
aI1180
aI1181
aI1183
aI1186
aI1187
aI1188
aI1190
aI1191
aI1193
aI1195
aI1196
aI1197
aI1198
aI1199
aI1201
aI1203
aI1204
aI1205
aI1206
aI1207
aI1208
aI1209
aI1210
aI1211
aI1212
aI1213
aI1215
aI1216
aI1218
aI1219
aI1220
aI1221
aI1223
aI1224
aI1225
aI1226
aI1227
aI1228
aI1229
aI1231
aI1232
aI1233
aI1234
aI1235
aI1236
aI1237
aI1238
aI1239
aI1240
aI1241
aI1242
aI1243
aI1245
aI1246
aI1247
aI1249
aI1250
aI1251
aI1252
aI1253
aI1255
aI1256
aI1257
aI1258
aI1259
aI1261
aI1263
aI1264
aI1265
aI1266
aI1267
aI1269
aI1270
aI1271
aa(lp19
I0
aI2
aI3
aI4
aI6
aI7
aI8
aI9
aI10
aI11
aI12
aI13
aI14
aI16
aI17
aI18
aI19
aI20
aI21
aI22
aI25
aI26
aI27
aI29
aI33
aI35
aI36
aI37
aI38
aI40
aI41
aI42
aI43
aI44
aI45
aI46
aI47
aI49
aI50
aI52
aI55
aI56
aI58
aI59
aI60
aI61
aI62
aI63
aI64
aI65
aI66
aI69
aI70
aI72
aI73
aI74
aI75
aI76
aI77
aI78
aI80
aI82
aI83
aI84
aI85
aI86
aI87
aI88
aI89
aI90
aI91
aI93
aI94
aI95
aI96
aI97
aI98
aI100
aI101
aI104
aI108
aI110
aI111
aI112
aI114
aI115
aI116
aI118
aI119
aI120
aI121
aI122
aI124
aI125
aI127
aI128
aI130
aI131
aI132
aI133
aI134
aI136
aI138
aI139
aI140
aI141
aI142
aI143
aI144
aI145
aI148
aI149
aI150
aI151
aI153
aI154
aI155
aI156
aI157
aI158
aI160
aI161
aI162
aI163
aI164
aI165
aI166
aI167
aI168
aI169
aI170
aI171
aI172
aI173
aI174
aI175
aI176
aI177
aI179
aI180
aI183
aI184
aI185
aI187
aI188
aI189
aI190
aI191
aI192
aI193
aI194
aI195
aI196
aI197
aI199
aI200
aI201
aI202
aI203
aI204
aI205
aI207
aI209
aI210
aI211
aI212
aI214
aI215
aI217
aI218
aI219
aI220
aI221
aI222
aI223
aI224
aI225
aI226
aI227
aI228
aI229
aI230
aI231
aI232
aI233
aI234
aI236
aI237
aI238
aI239
aI240
aI241
aI242
aI244
aI245
aI246
aI247
aI248
aI249
aI250
aI251
aI252
aI253
aI254
aI255
aI256
aI257
aI258
aI259
aI260
aI261
aI262
aI263
aI264
aI265
aI266
aI267
aI268
aI269
aI270
aI271
aI272
aI273
aI274
aI275
aI276
aI277
aI278
aI279
aI281
aI282
aI283
aI284
aI287
aI288
aI289
aI290
aI291
aI292
aI293
aI295
aI296
aI297
aI298
aI299
aI300
aI301
aI302
aI304
aI305
aI306
aI307
aI308
aI309
aI310
aI312
aI313
aI314
aI315
aI316
aI317
aI318
aI319
aI320
aI321
aI322
aI323
aI324
aI325
aI327
aI328
aI329
aI330
aI331
aI332
aI333
aI334
aI335
aI336
aI337
aI338
aI339
aI340
aI342
aI343
aI344
aI345
aI346
aI347
aI348
aI349
aI350
aI351
aI353
aI354
aI355
aI356
aI358
aI359
aI360
aI361
aI362
aI363
aI364
aI366
aI367
aI368
aI370
aI371
aI372
aI373
aI374
aI375
aI376
aI377
aI378
aI379
aI380
aI381
aI382
aI383
aI384
aI385
aI386
aI387
aI388
aI389
aI390
aI391
aI392
aI393
aI394
aI395
aI398
aI399
aI400
aI401
aI402
aI403
aI404
aI405
aI406
aI407
aI408
aI409
aI410
aI412
aI413
aI414
aI415
aI417
aI418
aI419
aI420
aI421
aI422
aI423
aI426
aI427
aI428
aI429
aI430
aI432
aI433
aI434
aI435
aI436
aI437
aI438
aI439
aI441
aI442
aI443
aI444
aI445
aI446
aI447
aI448
aI449
aI451
aI452
aI454
aI455
aI456
aI459
aI460
aI461
aI462
aI463
aI464
aI465
aI466
aI467
aI468
aI469
aI471
aI472
aI473
aI474
aI475
aI477
aI478
aI480
aI481
aI482
aI484
aI486
aI487
aI488
aI489
aI490
aI491
aI492
aI493
aI494
aI495
aI496
aI497
aI498
aI499
aI500
aI501
aI502
aI503
aI504
aI505
aI506
aI508
aI509
aI510
aI511
aI512
aI513
aI514
aI515
aI517
aI518
aI520
aI521
aI523
aI524
aI525
aI527
aI528
aI529
aI530
aI531
aI532
aI533
aI534
aI535
aI536
aI537
aI538
aI539
aI541
aI542
aI543
aI544
aI545
aI546
aI547
aI549
aI550
aI551
aI554
aI555
aI556
aI557
aI558
aI559
aI561
aI562
aI563
aI564
aI565
aI566
aI567
aI569
aI570
aI571
aI572
aI573
aI575
aI576
aI577
aI578
aI579
aI581
aI583
aI584
aI586
aI587
aI588
aI589
aI591
aI592
aI593
aI594
aI595
aI596
aI597
aI598
aI599
aI601
aI602
aI603
aI604
aI605
aI607
aI608
aI609
aI610
aI611
aI612
aI613
aI615
aI617
aI618
aI619
aI620
aI621
aI623
aI624
aI625
aI626
aI627
aI629
aI630
aI631
aI632
aI633
aI634
aI635
aI636
aI637
aI638
aI639
aI640
aI641
aI642
aI643
aI644
aI645
aI647
aI648
aI649
aI650
aI651
aI652
aI653
aI654
aI655
aI656
aI657
aI658
aI660
aI661
aI662
aI663
aI664
aI666
aI667
aI668
aI669
aI671
aI672
aI674
aI675
aI676
aI678
aI679
aI680
aI682
aI683
aI684
aI685
aI686
aI687
aI688
aI689
aI690
aI691
aI692
aI693
aI694
aI695
aI696
aI698
aI699
aI700
aI701
aI702
aI703
aI704
aI705
aI706
aI707
aI708
aI709
aI710
aI712
aI713
aI714
aI715
aI716
aI718
aI719
aI720
aI721
aI723
aI725
aI726
aI727
aI728
aI729
aI730
aI732
aI733
aI734
aI735
aI736
aI737
aI738
aI739
aI740
aI742
aI743
aI744
aI745
aI746
aI747
aI748
aI749
aI750
aI751
aI752
aI753
aI754
aI755
aI757
aI759
aI760
aI761
aI762
aI763
aI764
aI765
aI766
aI767
aI768
aI769
aI770
aI771
aI772
aI773
aI774
aI775
aI776
aI777
aI778
aI779
aI780
aI782
aI783
aI785
aI787
aI788
aI789
aI790
aI791
aI792
aI793
aI794
aI795
aI796
aI797
aI799
aI800
aI801
aI802
aI803
aI804
aI805
aI806
aI807
aI808
aI809
aI810
aI811
aI812
aI813
aI814
aI815
aI816
aI817
aI818
aI819
aI820
aI822
aI823
aI824
aI825
aI826
aI827
aI828
aI829
aI831
aI832
aI834
aI835
aI836
aI838
aI839
aI840
aI841
aI842
aI843
aI844
aI845
aI846
aI848
aI850
aI852
aI854
aI855
aI856
aI857
aI858
aI859
aI860
aI861
aI862
aI863
aI864
aI865
aI867
aI868
aI870
aI871
aI872
aI873
aI874
aI875
aI876
aI879
aI880
aI881
aI882
aI883
aI884
aI885
aI886
aI888
aI889
aI890
aI891
aI893
aI894
aI895
aI896
aI897
aI898
aI899
aI900
aI901
aI902
aI903
aI904
aI905
aI906
aI907
aI908
aI909
aI910
aI911
aI912
aI913
aI914
aI915
aI916
aI917
aI919
aI920
aI921
aI922
aI923
aI924
aI926
aI927
aI930
aI931
aI933
aI935
aI936
aI937
aI938
aI939
aI940
aI941
aI942
aI943
aI944
aI945
aI946
aI947
aI948
aI949
aI952
aI953
aI954
aI956
aI957
aI958
aI960
aI962
aI963
aI964
aI965
aI966
aI967
aI968
aI969
aI970
aI971
aI972
aI973
aI974
aI975
aI976
aI977
aI978
aI979
aI980
aI982
aI983
aI984
aI985
aI986
aI987
aI988
aI989
aI990
aI991
aI992
aI993
aI995
aI996
aI998
aI999
aI1000
aI1001
aI1002
aI1003
aI1004
aI1005
aI1006
aI1007
aI1008
aI1009
aI1010
aI1011
aI1012
aI1013
aI1014
aI1015
aI1016
aI1017
aI1018
aI1019
aI1020
aI1021
aI1022
aI1023
aI1024
aI1025
aI1026
aI1027
aI1028
aI1029
aI1030
aI1031
aI1032
aI1033
aI1034
aI1035
aI1036
aI1037
aI1038
aI1039
aI1040
aI1041
aI1042
aI1043
aI1044
aI1045
aI1046
aI1048
aI1049
aI1050
aI1051
aI1053
aI1054
aI1055
aI1056
aI1057
aI1058
aI1059
aI1060
aI1061
aI1062
aI1063
aI1065
aI1066
aI1068
aI1069
aI1070
aI1071
aI1072
aI1073
aI1074
aI1075
aI1076
aI1077
aI1078
aI1079
aI1080
aI1081
aI1082
aI1083
aI1084
aI1086
aI1087
aI1088
aI1090
aI1091
aI1092
aI1093
aI1094
aI1095
aI1096
aI1097
aI1098
aI1099
aI1100
aI1101
aI1102
aI1104
aI1106
aI1107
aI1108
aI1109
aI1111
aI1112
aI1113
aI1114
aI1115
aI1118
aI1119
aI1121
aI1122
aI1123
aI1124
aI1125
aI1126
aI1127
aI1128
aI1129
aI1130
aI1131
aI1132
aI1133
aI1134
aI1135
aI1136
aI1137
aI1138
aI1139
aI1140
aI1142
aI1144
aI1146
aI1147
aI1148
aI1149
aI1150
aI1152
aI1154
aI1155
aI1156
aI1157
aI1158
aI1159
aI1160
aI1162
aI1163
aI1164
aI1165
aI1166
aI1167
aI1168
aI1171
aI1172
aI1173
aI1174
aI1175
aI1177
aI1178
aI1179
aI1180
aI1182
aI1183
aI1184
aI1186
aI1187
aI1188
aI1189
aI1190
aI1191
aI1192
aI1193
aI1194
aI1195
aI1197
aI1198
aI1199
aI1200
aI1201
aI1202
aI1203
aI1204
aI1206
aI1207
aI1208
aI1209
aI1210
aI1211
aI1212
aI1213
aI1214
aI1216
aI1217
aI1218
aI1219
aI1220
aI1221
aI1222
aI1223
aI1224
aI1225
aI1226
aI1227
aI1228
aI1230
aI1231
aI1232
aI1233
aI1234
aI1235
aI1237
aI1238
aI1239
aI1240
aI1241
aI1242
aI1243
aI1245
aI1246
aI1247
aI1250
aI1251
aI1253
aI1254
aI1255
aI1256
aI1257
aI1258
aI1259
aI1260
aI1261
aI1262
aI1263
aI1264
aI1265
aI1266
aI1267
aI1269
aI1270
aI1271
aa(lp20
I0
aI2
aI3
aI4
aI6
aI7
aI8
aI10
aI11
aI12
aI13
aI14
aI16
aI17
aI18
aI19
aI22
aI25
aI26
aI27
aI29
aI32
aI33
aI35
aI36
aI37
aI38
aI40
aI41
aI42
aI43
aI44
aI45
aI46
aI47
aI49
aI50
aI51
aI53
aI54
aI55
aI56
aI57
aI58
aI59
aI60
aI61
aI63
aI64
aI65
aI66
aI67
aI69
aI70
aI72
aI73
aI74
aI75
aI76
aI77
aI78
aI79
aI80
aI81
aI83
aI84
aI85
aI86
aI87
aI88
aI89
aI90
aI91
aI92
aI93
aI94
aI95
aI96
aI97
aI98
aI100
aI101
aI102
aI103
aI104
aI105
aI106
aI107
aI108
aI109
aI110
aI111
aI112
aI114
aI115
aI116
aI117
aI118
aI119
aI120
aI121
aI122
aI123
aI124
aI125
aI127
aI128
aI129
aI130
aI131
aI132
aI133
aI134
aI135
aI136
aI137
aI138
aI139
aI140
aI141
aI142
aI143
aI144
aI145
aI146
aI148
aI149
aI150
aI151
aI153
aI154
aI156
aI157
aI158
aI159
aI160
aI161
aI162
aI163
aI164
aI165
aI166
aI167
aI168
aI170
aI171
aI172
aI173
aI174
aI175
aI176
aI177
aI178
aI179
aI180
aI181
aI183
aI184
aI185
aI187
aI188
aI189
aI190
aI191
aI193
aI194
aI195
aI196
aI197
aI198
aI199
aI200
aI201
aI202
aI203
aI204
aI205
aI207
aI208
aI209
aI210
aI211
aI212
aI213
aI214
aI215
aI216
aI217
aI218
aI219
aI221
aI222
aI224
aI225
aI227
aI228
aI229
aI231
aI232
aI233
aI234
aI235
aI236
aI237
aI238
aI239
aI240
aI242
aI243
aI244
aI245
aI246
aI247
aI249
aI250
aI251
aI252
aI253
aI254
aI255
aI256
aI257
aI258
aI259
aI261
aI262
aI263
aI264
aI265
aI266
aI267
aI268
aI269
aI270
aI271
aI272
aI273
aI274
aI275
aI276
aI277
aI278
aI279
aI280
aI282
aI284
aI285
aI286
aI288
aI289
aI290
aI292
aI294
aI295
aI296
aI297
aI298
aI299
aI300
aI301
aI302
aI304
aI305
aI306
aI307
aI308
aI309
aI310
aI312
aI313
aI314
aI315
aI316
aI317
aI319
aI320
aI321
aI322
aI323
aI324
aI325
aI326
aI327
aI329
aI330
aI331
aI332
aI333
aI334
aI335
aI336
aI337
aI339
aI340
aI342
aI343
aI344
aI345
aI346
aI349
aI350
aI351
aI353
aI354
aI355
aI356
aI357
aI358
aI359
aI360
aI361
aI362
aI363
aI364
aI366
aI367
aI368
aI370
aI372
aI373
aI374
aI375
aI376
aI377
aI378
aI379
aI381
aI382
aI383
aI384
aI385
aI386
aI387
aI388
aI389
aI390
aI391
aI392
aI393
aI394
aI395
aI396
aI397
aI398
aI399
aI400
aI401
aI402
aI404
aI405
aI406
aI407
aI408
aI409
aI410
aI412
aI413
aI415
aI416
aI417
aI418
aI419
aI420
aI421
aI422
aI423
aI426
aI428
aI429
aI430
aI431
aI432
aI433
aI434
aI435
aI436
aI437
aI438
aI439
aI440
aI441
aI442
aI443
aI445
aI446
aI448
aI449
aI451
aI453
aI454
aI455
aI456
aI457
aI458
aI459
aI460
aI461
aI463
aI464
aI466
aI467
aI469
aI472
aI473
aI474
aI475
aI476
aI478
aI479
aI480
aI481
aI482
aI483
aI484
aI485
aI486
aI487
aI488
aI489
aI490
aI491
aI492
aI493
aI494
aI495
aI496
aI497
aI498
aI499
aI500
aI501
aI503
aI504
aI505
aI506
aI508
aI509
aI510
aI512
aI513
aI514
aI515
aI516
aI517
aI518
aI520
aI521
aI523
aI524
aI526
aI527
aI528
aI529
aI530
aI531
aI532
aI533
aI534
aI535
aI537
aI539
aI541
aI542
aI543
aI545
aI546
aI547
aI548
aI550
aI551
aI553
aI554
aI555
aI556
aI557
aI558
aI559
aI561
aI562
aI563
aI564
aI565
aI567
aI568
aI569
aI570
aI571
aI572
aI573
aI574
aI575
aI576
aI577
aI578
aI579
aI580
aI581
aI582
aI583
aI584
aI585
aI586
aI587
aI588
aI589
aI590
aI591
aI592
aI593
aI594
aI596
aI597
aI598
aI599
aI601
aI602
aI603
aI604
aI605
aI607
aI608
aI609
aI610
aI611
aI612
aI613
aI614
aI615
aI616
aI617
aI618
aI619
aI620
aI621
aI622
aI623
aI624
aI625
aI627
aI628
aI629
aI630
aI631
aI632
aI633
aI634
aI635
aI637
aI638
aI639
aI640
aI643
aI644
aI645
aI646
aI647
aI648
aI649
aI650
aI651
aI652
aI653
aI655
aI656
aI657
aI658
aI659
aI660
aI661
aI663
aI665
aI667
aI669
aI670
aI671
aI672
aI673
aI674
aI675
aI676
aI678
aI679
aI680
aI682
aI683
aI684
aI685
aI686
aI687
aI688
aI689
aI690
aI691
aI692
aI693
aI694
aI695
aI696
aI697
aI698
aI699
aI701
aI702
aI703
aI704
aI705
aI706
aI707
aI708
aI709
aI710
aI712
aI713
aI715
aI716
aI718
aI719
aI721
aI725
aI726
aI727
aI728
aI730
aI732
aI733
aI735
aI736
aI737
aI738
aI739
aI740
aI741
aI742
aI744
aI745
aI746
aI747
aI748
aI749
aI751
aI752
aI753
aI754
aI755
aI756
aI757
aI759
aI760
aI762
aI763
aI764
aI766
aI767
aI768
aI769
aI770
aI771
aI772
aI773
aI774
aI775
aI776
aI777
aI778
aI779
aI780
aI781
aI782
aI783
aI785
aI786
aI787
aI788
aI789
aI790
aI793
aI794
aI795
aI796
aI797
aI798
aI799
aI801
aI802
aI803
aI805
aI806
aI807
aI808
aI809
aI810
aI812
aI813
aI814
aI815
aI816
aI817
aI820
aI822
aI823
aI825
aI826
aI827
aI828
aI829
aI830
aI831
aI832
aI833
aI834
aI835
aI836
aI837
aI838
aI839
aI841
aI843
aI844
aI845
aI846
aI847
aI848
aI849
aI850
aI851
aI852
aI853
aI854
aI855
aI857
aI858
aI859
aI860
aI861
aI862
aI863
aI864
aI865
aI867
aI868
aI869
aI870
aI871
aI872
aI873
aI875
aI877
aI879
aI881
aI882
aI883
aI884
aI885
aI886
aI888
aI889
aI890
aI891
aI892
aI893
aI894
aI895
aI896
aI897
aI898
aI899
aI901
aI902
aI903
aI904
aI905
aI906
aI907
aI908
aI909
aI910
aI911
aI912
aI913
aI914
aI915
aI916
aI917
aI918
aI919
aI920
aI921
aI922
aI924
aI925
aI926
aI927
aI928
aI929
aI930
aI931
aI933
aI934
aI935
aI936
aI938
aI939
aI940
aI941
aI942
aI943
aI944
aI945
aI946
aI948
aI949
aI950
aI951
aI952
aI953
aI954
aI955
aI956
aI958
aI959
aI960
aI961
aI962
aI963
aI964
aI965
aI966
aI967
aI968
aI969
aI970
aI971
aI972
aI973
aI974
aI976
aI977
aI978
aI980
aI981
aI982
aI983
aI984
aI986
aI987
aI988
aI989
aI991
aI992
aI994
aI995
aI996
aI997
aI998
aI999
aI1001
aI1002
aI1003
aI1004
aI1005
aI1006
aI1007
aI1008
aI1009
aI1010
aI1011
aI1012
aI1013
aI1014
aI1015
aI1016
aI1017
aI1018
aI1019
aI1021
aI1022
aI1023
aI1024
aI1025
aI1026
aI1027
aI1028
aI1029
aI1031
aI1032
aI1033
aI1034
aI1036
aI1037
aI1038
aI1039
aI1040
aI1041
aI1042
aI1043
aI1044
aI1045
aI1046
aI1047
aI1048
aI1050
aI1051
aI1054
aI1055
aI1056
aI1057
aI1058
aI1059
aI1060
aI1061
aI1064
aI1065
aI1066
aI1067
aI1068
aI1069
aI1070
aI1071
aI1072
aI1073
aI1074
aI1075
aI1076
aI1077
aI1078
aI1079
aI1080
aI1081
aI1082
aI1083
aI1084
aI1085
aI1086
aI1087
aI1088
aI1090
aI1091
aI1092
aI1093
aI1094
aI1095
aI1096
aI1097
aI1098
aI1100
aI1101
aI1102
aI1103
aI1104
aI1105
aI1106
aI1108
aI1109
aI1110
aI1111
aI1112
aI1114
aI1115
aI1116
aI1117
aI1118
aI1119
aI1120
aI1121
aI1122
aI1123
aI1124
aI1126
aI1128
aI1129
aI1132
aI1133
aI1135
aI1136
aI1137
aI1138
aI1139
aI1140
aI1141
aI1144
aI1146
aI1147
aI1148
aI1149
aI1150
aI1151
aI1152
aI1153
aI1154
aI1155
aI1156
aI1157
aI1158
aI1159
aI1161
aI1162
aI1164
aI1166
aI1167
aI1169
aI1170
aI1171
aI1172
aI1173
aI1174
aI1175
aI1176
aI1177
aI1178
aI1179
aI1180
aI1181
aI1182
aI1183
aI1184
aI1186
aI1187
aI1189
aI1190
aI1192
aI1193
aI1194
aI1195
aI1196
aI1197
aI1198
aI1199
aI1200
aI1201
aI1202
aI1203
aI1204
aI1205
aI1206
aI1207
aI1208
aI1209
aI1210
aI1211
aI1212
aI1213
aI1214
aI1215
aI1216
aI1217
aI1218
aI1219
aI1220
aI1221
aI1222
aI1223
aI1224
aI1225
aI1226
aI1227
aI1228
aI1229
aI1230
aI1231
aI1232
aI1233
aI1234
aI1236
aI1237
aI1238
aI1239
aI1240
aI1241
aI1243
aI1245
aI1247
aI1249
aI1250
aI1251
aI1252
aI1253
aI1254
aI1257
aI1258
aI1259
aI1260
aI1261
aI1262
aI1263
aI1264
aI1265
aI1266
aI1267
aI1269
aa(lp21
I0
aI2
aI4
aI6
aI7
aI8
aI9
aI10
aI11
aI12
aI13
aI16
aI17
aI18
aI19
aI20
aI21
aI22
aI25
aI26
aI27
aI29
aI32
aI33
aI35
aI37
aI38
aI40
aI41
aI42
aI43
aI44
aI45
aI46
aI47
aI49
aI50
aI51
aI52
aI53
aI54
aI55
aI56
aI57
aI58
aI60
aI61
aI62
aI63
aI65
aI66
aI67
aI70
aI72
aI73
aI74
aI76
aI77
aI79
aI80
aI81
aI82
aI83
aI84
aI86
aI87
aI88
aI89
aI90
aI91
aI92
aI93
aI95
aI96
aI97
aI98
aI101
aI102
aI103
aI104
aI105
aI106
aI107
aI108
aI109
aI110
aI111
aI112
aI114
aI115
aI116
aI117
aI118
aI120
aI121
aI122
aI123
aI124
aI125
aI127
aI128
aI129
aI131
aI132
aI133
aI134
aI135
aI136
aI137
aI138
aI139
aI140
aI142
aI143
aI145
aI146
aI148
aI149
aI150
aI151
aI153
aI154
aI155
aI156
aI157
aI158
aI159
aI160
aI161
aI162
aI163
aI164
aI165
aI166
aI167
aI168
aI169
aI170
aI172
aI173
aI174
aI175
aI176
aI178
aI179
aI180
aI181
aI184
aI185
aI187
aI188
aI189
aI190
aI191
aI192
aI194
aI195
aI196
aI197
aI198
aI199
aI201
aI203
aI204
aI205
aI207
aI208
aI209
aI210
aI211
aI212
aI213
aI214
aI215
aI216
aI218
aI219
aI220
aI221
aI222
aI223
aI224
aI225
aI226
aI227
aI228
aI229
aI230
aI231
aI232
aI233
aI234
aI235
aI236
aI237
aI238
aI239
aI240
aI241
aI242
aI243
aI244
aI247
aI248
aI249
aI250
aI251
aI252
aI253
aI254
aI256
aI257
aI258
aI259
aI260
aI261
aI262
aI263
aI264
aI265
aI266
aI267
aI268
aI269
aI270
aI271
aI272
aI274
aI275
aI276
aI277
aI278
aI279
aI280
aI281
aI282
aI283
aI284
aI285
aI286
aI287
aI288
aI289
aI290
aI291
aI292
aI293
aI294
aI295
aI296
aI297
aI298
aI299
aI300
aI301
aI302
aI305
aI306
aI307
aI308
aI309
aI312
aI315
aI316
aI317
aI318
aI319
aI320
aI321
aI322
aI323
aI325
aI326
aI327
aI328
aI329
aI330
aI331
aI332
aI333
aI334
aI335
aI336
aI337
aI338
aI339
aI340
aI342
aI343
aI344
aI345
aI346
aI347
aI348
aI349
aI350
aI353
aI354
aI355
aI356
aI357
aI358
aI360
aI361
aI363
aI364
aI366
aI367
aI370
aI371
aI372
aI373
aI374
aI376
aI377
aI378
aI379
aI380
aI381
aI382
aI383
aI385
aI386
aI387
aI388
aI389
aI390
aI391
aI392
aI393
aI394
aI395
aI396
aI397
aI398
aI399
aI400
aI402
aI403
aI404
aI405
aI406
aI409
aI410
aI412
aI413
aI414
aI415
aI416
aI417
aI418
aI419
aI421
aI422
aI423
aI426
aI427
aI428
aI430
aI431
aI432
aI433
aI434
aI435
aI436
aI437
aI438
aI439
aI440
aI442
aI443
aI444
aI445
aI446
aI447
aI448
aI449
aI451
aI452
aI453
aI454
aI455
aI456
aI457
aI458
aI459
aI460
aI461
aI462
aI463
aI464
aI465
aI466
aI467
aI468
aI469
aI471
aI472
aI473
aI474
aI475
aI476
aI477
aI478
aI479
aI480
aI481
aI482
aI483
aI484
aI485
aI486
aI488
aI489
aI490
aI491
aI492
aI493
aI494
aI497
aI498
aI501
aI502
aI503
aI504
aI505
aI508
aI509
aI511
aI512
aI513
aI514
aI515
aI516
aI517
aI518
aI520
aI521
aI523
aI524
aI525
aI526
aI528
aI529
aI530
aI532
aI533
aI534
aI535
aI536
aI537
aI538
aI539
aI542
aI543
aI544
aI545
aI546
aI547
aI548
aI549
aI550
aI551
aI553
aI554
aI555
aI556
aI558
aI559
aI562
aI563
aI564
aI565
aI566
aI567
aI568
aI569
aI570
aI571
aI572
aI573
aI574
aI576
aI578
aI579
aI580
aI581
aI582
aI583
aI584
aI585
aI587
aI588
aI589
aI590
aI591
aI592
aI593
aI594
aI595
aI596
aI597
aI598
aI601
aI602
aI603
aI604
aI607
aI610
aI611
aI612
aI614
aI615
aI616
aI617
aI618
aI619
aI620
aI621
aI622
aI623
aI624
aI625
aI626
aI628
aI629
aI630
aI631
aI633
aI634
aI635
aI636
aI637
aI638
aI639
aI640
aI641
aI642
aI643
aI644
aI645
aI646
aI647
aI649
aI650
aI651
aI652
aI653
aI654
aI655
aI656
aI657
aI658
aI659
aI660
aI661
aI662
aI663
aI664
aI665
aI666
aI667
aI668
aI669
aI670
aI671
aI672
aI673
aI674
aI675
aI676
aI678
aI679
aI682
aI683
aI684
aI685
aI686
aI687
aI688
aI689
aI690
aI691
aI692
aI693
aI694
aI696
aI697
aI698
aI699
aI700
aI701
aI703
aI704
aI705
aI706
aI707
aI708
aI710
aI712
aI713
aI714
aI715
aI716
aI719
aI720
aI721
aI723
aI725
aI726
aI727
aI728
aI729
aI730
aI732
aI733
aI734
aI735
aI736
aI737
aI738
aI740
aI741
aI742
aI743
aI744
aI745
aI746
aI747
aI748
aI749
aI750
aI751
aI752
aI754
aI755
aI756
aI757
aI761
aI762
aI764
aI765
aI766
aI769
aI770
aI771
aI772
aI773
aI774
aI775
aI776
aI777
aI778
aI779
aI780
aI781
aI782
aI783
aI786
aI787
aI788
aI789
aI791
aI792
aI793
aI794
aI795
aI796
aI797
aI798
aI799
aI800
aI801
aI803
aI804
aI806
aI807
aI808
aI809
aI811
aI812
aI814
aI815
aI816
aI817
aI818
aI819
aI820
aI822
aI823
aI824
aI825
aI826
aI827
aI828
aI829
aI830
aI831
aI832
aI833
aI834
aI835
aI836
aI837
aI838
aI840
aI841
aI842
aI844
aI845
aI847
aI848
aI849
aI850
aI851
aI852
aI853
aI854
aI855
aI856
aI857
aI858
aI859
aI860
aI862
aI863
aI864
aI865
aI868
aI869
aI870
aI871
aI872
aI873
aI874
aI875
aI876
aI877
aI879
aI880
aI881
aI882
aI883
aI884
aI885
aI886
aI888
aI889
aI890
aI891
aI892
aI893
aI894
aI895
aI896
aI897
aI899
aI900
aI901
aI902
aI903
aI904
aI906
aI909
aI910
aI911
aI912
aI913
aI914
aI916
aI917
aI918
aI920
aI921
aI922
aI923
aI925
aI926
aI927
aI928
aI929
aI930
aI931
aI933
aI934
aI935
aI936
aI937
aI938
aI939
aI940
aI941
aI942
aI943
aI944
aI945
aI946
aI947
aI948
aI949
aI950
aI951
aI952
aI953
aI955
aI956
aI957
aI958
aI959
aI960
aI961
aI962
aI963
aI964
aI965
aI966
aI967
aI968
aI970
aI971
aI972
aI973
aI975
aI976
aI977
aI978
aI979
aI980
aI981
aI982
aI983
aI984
aI985
aI986
aI988
aI989
aI990
aI991
aI992
aI993
aI994
aI995
aI997
aI998
aI999
aI1000
aI1002
aI1004
aI1005
aI1006
aI1007
aI1008
aI1009
aI1010
aI1011
aI1012
aI1013
aI1014
aI1015
aI1016
aI1017
aI1018
aI1019
aI1020
aI1021
aI1022
aI1023
aI1024
aI1025
aI1026
aI1027
aI1028
aI1029
aI1030
aI1031
aI1032
aI1033
aI1034
aI1035
aI1037
aI1038
aI1039
aI1040
aI1041
aI1042
aI1043
aI1044
aI1045
aI1047
aI1048
aI1049
aI1050
aI1053
aI1054
aI1055
aI1056
aI1057
aI1058
aI1059
aI1060
aI1061
aI1062
aI1063
aI1064
aI1065
aI1066
aI1067
aI1068
aI1069
aI1070
aI1072
aI1073
aI1074
aI1075
aI1076
aI1077
aI1079
aI1081
aI1082
aI1083
aI1084
aI1085
aI1086
aI1087
aI1088
aI1090
aI1091
aI1092
aI1093
aI1094
aI1095
aI1096
aI1097
aI1098
aI1099
aI1100
aI1101
aI1103
aI1104
aI1105
aI1106
aI1107
aI1108
aI1109
aI1110
aI1111
aI1112
aI1113
aI1114
aI1115
aI1116
aI1117
aI1118
aI1119
aI1120
aI1121
aI1122
aI1123
aI1124
aI1125
aI1127
aI1128
aI1130
aI1131
aI1132
aI1133
aI1134
aI1135
aI1137
aI1138
aI1139
aI1140
aI1141
aI1142
aI1144
aI1146
aI1147
aI1148
aI1149
aI1150
aI1151
aI1153
aI1154
aI1155
aI1156
aI1157
aI1158
aI1160
aI1161
aI1162
aI1163
aI1164
aI1165
aI1166
aI1167
aI1168
aI1169
aI1170
aI1171
aI1172
aI1173
aI1174
aI1175
aI1176
aI1177
aI1178
aI1179
aI1180
aI1181
aI1182
aI1183
aI1184
aI1186
aI1187
aI1188
aI1189
aI1190
aI1191
aI1192
aI1193
aI1194
aI1195
aI1196
aI1197
aI1199
aI1200
aI1201
aI1202
aI1205
aI1206
aI1207
aI1208
aI1209
aI1211
aI1213
aI1214
aI1215
aI1216
aI1217
aI1218
aI1219
aI1220
aI1221
aI1222
aI1223
aI1224
aI1225
aI1226
aI1227
aI1228
aI1229
aI1230
aI1231
aI1232
aI1233
aI1234
aI1235
aI1236
aI1238
aI1239
aI1240
aI1241
aI1242
aI1243
aI1245
aI1246
aI1247
aI1249
aI1250
aI1251
aI1252
aI1253
aI1254
aI1255
aI1256
aI1257
aI1258
aI1259
aI1260
aI1261
aI1262
aI1263
aI1264
aI1265
aI1266
aI1267
aI1269
aI1270
aI1271
aa(lp22
I0
aI2
aI3
aI4
aI6
aI7
aI8
aI9
aI10
aI11
aI12
aI13
aI14
aI17
aI19
aI20
aI21
aI22
aI25
aI26
aI27
aI29
aI32
aI33
aI35
aI36
aI37
aI38
aI40
aI41
aI42
aI43
aI44
aI45
aI46
aI47
aI49
aI50
aI51
aI52
aI53
aI54
aI55
aI57
aI58
aI59
aI60
aI61
aI62
aI63
aI64
aI65
aI66
aI67
aI69
aI70
aI73
aI74
aI75
aI76
aI78
aI79
aI80
aI81
aI82
aI83
aI84
aI85
aI86
aI87
aI88
aI89
aI90
aI91
aI92
aI93
aI94
aI95
aI96
aI97
aI98
aI100
aI101
aI102
aI103
aI104
aI105
aI106
aI107
aI108
aI109
aI110
aI111
aI112
aI114
aI115
aI116
aI117
aI118
aI119
aI120
aI121
aI122
aI123
aI124
aI125
aI127
aI128
aI129
aI130
aI131
aI132
aI133
aI135
aI136
aI137
aI138
aI139
aI140
aI141
aI143
aI144
aI145
aI146
aI148
aI150
aI151
aI153
aI154
aI155
aI156
aI157
aI158
aI159
aI160
aI161
aI162
aI163
aI164
aI165
aI166
aI168
aI169
aI170
aI171
aI172
aI173
aI174
aI175
aI176
aI177
aI178
aI179
aI180
aI181
aI183
aI184
aI185
aI187
aI188
aI189
aI190
aI191
aI192
aI193
aI194
aI197
aI198
aI199
aI200
aI201
aI202
aI203
aI204
aI205
aI207
aI208
aI209
aI210
aI211
aI212
aI213
aI214
aI215
aI216
aI217
aI218
aI219
aI220
aI221
aI223
aI224
aI226
aI227
aI228
aI229
aI230
aI231
aI232
aI233
aI234
aI235
aI236
aI237
aI238
aI239
aI240
aI241
aI243
aI244
aI245
aI246
aI248
aI249
aI250
aI251
aI252
aI253
aI254
aI255
aI256
aI257
aI259
aI260
aI261
aI262
aI263
aI264
aI265
aI266
aI267
aI269
aI270
aI271
aI272
aI273
aI274
aI276
aI277
aI278
aI279
aI280
aI281
aI283
aI285
aI286
aI287
aI288
aI289
aI290
aI291
aI292
aI293
aI294
aI296
aI297
aI298
aI299
aI300
aI301
aI302
aI304
aI305
aI306
aI307
aI308
aI310
aI312
aI313
aI314
aI315
aI316
aI317
aI318
aI320
aI321
aI322
aI323
aI324
aI326
aI328
aI329
aI330
aI331
aI332
aI333
aI334
aI336
aI337
aI338
aI342
aI343
aI344
aI346
aI347
aI348
aI350
aI351
aI353
aI354
aI356
aI357
aI358
aI359
aI360
aI361
aI362
aI363
aI367
aI368
aI370
aI371
aI372
aI373
aI374
aI375
aI376
aI377
aI378
aI379
aI380
aI381
aI382
aI383
aI384
aI385
aI388
aI389
aI390
aI391
aI393
aI394
aI395
aI396
aI397
aI399
aI400
aI401
aI402
aI403
aI404
aI405
aI406
aI407
aI408
aI410
aI412
aI413
aI414
aI416
aI417
aI418
aI419
aI420
aI421
aI422
aI423
aI426
aI427
aI428
aI429
aI430
aI431
aI432
aI434
aI435
aI436
aI437
aI438
aI439
aI440
aI441
aI442
aI443
aI444
aI445
aI446
aI447
aI448
aI449
aI451
aI452
aI453
aI454
aI455
aI456
aI457
aI458
aI459
aI460
aI461
aI462
aI463
aI464
aI465
aI466
aI467
aI468
aI469
aI471
aI472
aI473
aI474
aI475
aI476
aI477
aI478
aI479
aI480
aI481
aI482
aI483
aI484
aI485
aI486
aI487
aI488
aI490
aI491
aI492
aI493
aI494
aI495
aI496
aI498
aI499
aI500
aI501
aI502
aI503
aI504
aI505
aI506
aI508
aI509
aI510
aI511
aI513
aI514
aI515
aI516
aI518
aI520
aI521
aI525
aI526
aI527
aI530
aI531
aI532
aI533
aI534
aI535
aI536
aI537
aI538
aI539
aI541
aI542
aI544
aI545
aI546
aI548
aI549
aI550
aI551
aI553
aI554
aI556
aI557
aI558
aI559
aI561
aI562
aI563
aI564
aI565
aI566
aI567
aI568
aI569
aI571
aI572
aI574
aI575
aI576
aI577
aI579
aI580
aI581
aI582
aI583
aI584
aI585
aI586
aI587
aI588
aI589
aI590
aI591
aI592
aI593
aI594
aI595
aI597
aI598
aI599
aI601
aI603
aI604
aI605
aI607
aI608
aI609
aI610
aI611
aI612
aI613
aI614
aI615
aI616
aI617
aI618
aI619
aI620
aI622
aI623
aI624
aI625
aI626
aI627
aI628
aI629
aI630
aI631
aI632
aI634
aI635
aI636
aI638
aI639
aI641
aI642
aI644
aI645
aI646
aI647
aI648
aI649
aI651
aI652
aI653
aI654
aI656
aI658
aI659
aI660
aI661
aI662
aI663
aI664
aI665
aI666
aI667
aI668
aI669
aI670
aI671
aI673
aI674
aI675
aI676
aI678
aI679
aI680
aI682
aI684
aI685
aI686
aI687
aI688
aI689
aI691
aI692
aI694
aI695
aI696
aI697
aI698
aI699
aI700
aI701
aI702
aI703
aI704
aI705
aI706
aI707
aI709
aI710
aI712
aI713
aI714
aI715
aI718
aI719
aI720
aI721
aI723
aI726
aI727
aI728
aI729
aI730
aI732
aI734
aI735
aI736
aI737
aI738
aI739
aI740
aI741
aI743
aI744
aI745
aI746
aI748
aI749
aI750
aI752
aI753
aI754
aI755
aI756
aI757
aI759
aI760
aI761
aI762
aI763
aI764
aI765
aI766
aI767
aI768
aI769
aI770
aI771
aI772
aI774
aI775
aI776
aI777
aI778
aI779
aI780
aI781
aI782
aI785
aI786
aI787
aI788
aI790
aI791
aI792
aI793
aI795
aI796
aI797
aI798
aI799
aI800
aI801
aI802
aI804
aI805
aI807
aI809
aI810
aI811
aI812
aI813
aI814
aI815
aI816
aI817
aI818
aI819
aI822
aI823
aI824
aI825
aI826
aI827
aI828
aI829
aI830
aI831
aI832
aI833
aI834
aI835
aI836
aI837
aI838
aI839
aI840
aI842
aI843
aI844
aI845
aI846
aI847
aI848
aI849
aI850
aI851
aI852
aI853
aI854
aI855
aI856
aI857
aI858
aI859
aI860
aI861
aI862
aI863
aI864
aI865
aI867
aI868
aI869
aI870
aI871
aI872
aI873
aI874
aI875
aI876
aI877
aI879
aI880
aI881
aI882
aI883
aI884
aI889
aI890
aI892
aI893
aI894
aI895
aI896
aI897
aI898
aI899
aI900
aI901
aI902
aI903
aI904
aI905
aI906
aI907
aI908
aI909
aI910
aI911
aI912
aI913
aI914
aI915
aI917
aI918
aI919
aI920
aI921
aI922
aI923
aI924
aI925
aI926
aI927
aI928
aI929
aI930
aI933
aI934
aI935
aI936
aI937
aI938
aI939
aI940
aI941
aI942
aI943
aI944
aI945
aI946
aI947
aI948
aI949
aI950
aI951
aI952
aI954
aI955
aI957
aI958
aI959
aI961
aI962
aI963
aI964
aI965
aI966
aI967
aI969
aI971
aI972
aI973
aI974
aI975
aI976
aI977
aI978
aI979
aI980
aI981
aI982
aI983
aI984
aI985
aI986
aI987
aI988
aI989
aI990
aI991
aI992
aI993
aI994
aI995
aI996
aI997
aI998
aI999
aI1000
aI1001
aI1002
aI1003
aI1004
aI1005
aI1006
aI1007
aI1009
aI1010
aI1011
aI1012
aI1013
aI1015
aI1016
aI1017
aI1018
aI1019
aI1020
aI1021
aI1022
aI1023
aI1024
aI1025
aI1026
aI1028
aI1029
aI1030
aI1031
aI1032
aI1033
aI1034
aI1035
aI1036
aI1037
aI1038
aI1039
aI1041
aI1043
aI1044
aI1045
aI1046
aI1047
aI1048
aI1049
aI1050
aI1051
aI1053
aI1054
aI1055
aI1057
aI1058
aI1059
aI1060
aI1061
aI1062
aI1063
aI1064
aI1066
aI1067
aI1068
aI1069
aI1070
aI1071
aI1072
aI1073
aI1074
aI1075
aI1076
aI1077
aI1078
aI1079
aI1080
aI1081
aI1082
aI1083
aI1084
aI1085
aI1087
aI1088
aI1090
aI1091
aI1092
aI1093
aI1094
aI1095
aI1096
aI1098
aI1099
aI1100
aI1101
aI1102
aI1103
aI1104
aI1105
aI1106
aI1107
aI1108
aI1109
aI1110
aI1112
aI1113
aI1114
aI1115
aI1116
aI1117
aI1118
aI1120
aI1121
aI1122
aI1123
aI1125
aI1126
aI1127
aI1128
aI1129
aI1130
aI1131
aI1132
aI1133
aI1134
aI1135
aI1136
aI1137
aI1138
aI1139
aI1141
aI1142
aI1144
aI1147
aI1148
aI1149
aI1150
aI1151
aI1152
aI1153
aI1154
aI1155
aI1156
aI1157
aI1159
aI1160
aI1161
aI1162
aI1163
aI1164
aI1165
aI1166
aI1167
aI1168
aI1169
aI1170
aI1171
aI1172
aI1173
aI1174
aI1175
aI1176
aI1177
aI1179
aI1180
aI1181
aI1182
aI1184
aI1186
aI1187
aI1188
aI1189
aI1190
aI1191
aI1192
aI1194
aI1195
aI1196
aI1197
aI1198
aI1199
aI1200
aI1201
aI1202
aI1203
aI1204
aI1205
aI1206
aI1207
aI1208
aI1210
aI1211
aI1212
aI1213
aI1214
aI1215
aI1217
aI1219
aI1220
aI1222
aI1223
aI1224
aI1226
aI1227
aI1228
aI1229
aI1230
aI1231
aI1232
aI1234
aI1235
aI1236
aI1237
aI1239
aI1240
aI1241
aI1242
aI1243
aI1245
aI1246
aI1249
aI1250
aI1251
aI1252
aI1253
aI1254
aI1255
aI1256
aI1257
aI1258
aI1259
aI1260
aI1261
aI1262
aI1263
aI1264
aI1265
aI1266
aI1267
aI1269
aI1270
aI1271
aa(lp23
I0
aI2
aI3
aI4
aI6
aI8
aI9
aI10
aI12
aI13
aI14
aI16
aI17
aI18
aI19
aI20
aI21
aI25
aI27
aI32
aI33
aI35
aI36
aI37
aI38
aI40
aI41
aI42
aI43
aI44
aI46
aI47
aI50
aI51
aI52
aI53
aI54
aI55
aI56
aI57
aI58
aI59
aI60
aI61
aI62
aI63
aI64
aI65
aI66
aI67
aI69
aI70
aI72
aI73
aI74
aI75
aI76
aI77
aI78
aI79
aI81
aI82
aI83
aI84
aI85
aI86
aI87
aI88
aI89
aI90
aI91
aI92
aI93
aI94
aI95
aI96
aI97
aI100
aI102
aI103
aI104
aI105
aI106
aI107
aI108
aI109
aI110
aI112
aI114
aI115
aI117
aI118
aI119
aI120
aI121
aI123
aI124
aI128
aI129
aI130
aI131
aI133
aI134
aI135
aI137
aI138
aI140
aI141
aI142
aI143
aI144
aI145
aI146
aI148
aI149
aI150
aI151
aI153
aI154
aI155
aI156
aI157
aI158
aI159
aI160
aI161
aI162
aI163
aI164
aI165
aI166
aI167
aI168
aI169
aI170
aI171
aI172
aI174
aI175
aI176
aI177
aI178
aI179
aI180
aI181
aI183
aI184
aI185
aI187
aI188
aI189
aI190
aI191
aI192
aI193
aI194
aI195
aI196
aI197
aI198
aI199
aI200
aI201
aI202
aI203
aI205
aI207
aI208
aI209
aI210
aI211
aI212
aI213
aI216
aI217
aI218
aI220
aI221
aI222
aI223
aI224
aI225
aI226
aI227
aI228
aI229
aI230
aI234
aI235
aI236
aI237
aI238
aI239
aI240
aI241
aI242
aI243
aI245
aI246
aI247
aI248
aI249
aI250
aI251
aI253
aI254
aI255
aI256
aI257
aI258
aI259
aI260
aI261
aI262
aI263
aI264
aI265
aI266
aI268
aI270
aI271
aI272
aI273
aI274
aI275
aI277
aI280
aI281
aI282
aI283
aI284
aI285
aI286
aI287
aI288
aI289
aI291
aI293
aI294
aI295
aI296
aI297
aI298
aI299
aI300
aI301
aI302
aI304
aI305
aI306
aI307
aI308
aI309
aI310
aI312
aI313
aI314
aI316
aI317
aI318
aI319
aI320
aI321
aI322
aI323
aI324
aI325
aI326
aI327
aI328
aI329
aI330
aI332
aI334
aI335
aI336
aI337
aI338
aI339
aI340
aI343
aI344
aI345
aI346
aI347
aI348
aI349
aI350
aI351
aI353
aI354
aI355
aI356
aI357
aI358
aI359
aI360
aI361
aI362
aI363
aI364
aI366
aI367
aI368
aI370
aI371
aI373
aI374
aI375
aI376
aI377
aI378
aI379
aI380
aI381
aI382
aI383
aI384
aI385
aI386
aI387
aI388
aI389
aI390
aI391
aI392
aI394
aI396
aI397
aI398
aI400
aI401
aI403
aI404
aI405
aI407
aI408
aI409
aI412
aI413
aI414
aI415
aI416
aI417
aI418
aI420
aI421
aI423
aI426
aI427
aI428
aI429
aI430
aI431
aI432
aI433
aI435
aI436
aI437
aI438
aI439
aI440
aI441
aI442
aI443
aI444
aI445
aI447
aI449
aI451
aI452
aI453
aI454
aI455
aI456
aI457
aI458
aI459
aI461
aI462
aI463
aI464
aI465
aI466
aI467
aI468
aI469
aI471
aI472
aI473
aI474
aI475
aI476
aI477
aI478
aI479
aI480
aI482
aI483
aI484
aI485
aI486
aI487
aI488
aI489
aI490
aI491
aI492
aI493
aI494
aI495
aI496
aI497
aI499
aI500
aI502
aI503
aI504
aI505
aI506
aI509
aI510
aI511
aI512
aI513
aI514
aI515
aI516
aI517
aI518
aI520
aI521
aI523
aI524
aI525
aI526
aI527
aI528
aI529
aI531
aI532
aI534
aI535
aI536
aI538
aI539
aI541
aI542
aI543
aI544
aI545
aI546
aI547
aI548
aI549
aI550
aI551
aI553
aI554
aI555
aI556
aI557
aI558
aI561
aI562
aI563
aI564
aI566
aI567
aI568
aI569
aI570
aI571
aI572
aI573
aI574
aI575
aI576
aI577
aI578
aI579
aI580
aI581
aI582
aI583
aI584
aI585
aI586
aI587
aI588
aI589
aI590
aI591
aI592
aI593
aI594
aI595
aI596
aI597
aI598
aI599
aI601
aI602
aI603
aI604
aI605
aI607
aI608
aI609
aI611
aI612
aI613
aI614
aI615
aI616
aI617
aI619
aI620
aI621
aI622
aI624
aI625
aI626
aI627
aI628
aI629
aI630
aI631
aI632
aI633
aI634
aI635
aI636
aI637
aI638
aI639
aI640
aI641
aI642
aI643
aI644
aI645
aI646
aI647
aI648
aI649
aI650
aI651
aI652
aI653
aI654
aI655
aI656
aI657
aI658
aI659
aI660
aI661
aI662
aI663
aI664
aI665
aI666
aI667
aI668
aI669
aI670
aI671
aI672
aI673
aI675
aI676
aI678
aI679
aI680
aI683
aI684
aI685
aI686
aI687
aI688
aI690
aI691
aI692
aI693
aI695
aI696
aI697
aI699
aI700
aI701
aI702
aI703
aI704
aI707
aI708
aI709
aI710
aI712
aI713
aI714
aI715
aI716
aI718
aI719
aI720
aI721
aI723
aI725
aI726
aI727
aI728
aI729
aI730
aI732
aI733
aI734
aI735
aI737
aI739
aI740
aI741
aI742
aI743
aI744
aI746
aI747
aI748
aI749
aI750
aI751
aI752
aI753
aI755
aI756
aI759
aI760
aI761
aI762
aI763
aI764
aI765
aI766
aI767
aI768
aI769
aI770
aI771
aI772
aI773
aI774
aI775
aI776
aI777
aI778
aI779
aI781
aI782
aI783
aI785
aI786
aI789
aI790
aI791
aI792
aI794
aI795
aI796
aI798
aI799
aI800
aI801
aI802
aI803
aI804
aI805
aI806
aI807
aI808
aI809
aI810
aI811
aI813
aI814
aI815
aI816
aI818
aI819
aI820
aI822
aI823
aI824
aI825
aI826
aI827
aI828
aI829
aI830
aI831
aI832
aI833
aI834
aI836
aI837
aI839
aI840
aI841
aI842
aI843
aI844
aI845
aI846
aI847
aI848
aI849
aI850
aI851
aI852
aI853
aI855
aI856
aI857
aI859
aI860
aI861
aI862
aI863
aI864
aI865
aI867
aI868
aI869
aI870
aI871
aI873
aI874
aI875
aI876
aI877
aI879
aI880
aI881
aI882
aI883
aI885
aI886
aI888
aI889
aI890
aI891
aI892
aI893
aI894
aI895
aI896
aI897
aI898
aI899
aI900
aI901
aI902
aI903
aI904
aI905
aI907
aI908
aI910
aI911
aI912
aI913
aI914
aI915
aI916
aI917
aI918
aI919
aI921
aI922
aI923
aI924
aI925
aI926
aI927
aI928
aI929
aI930
aI931
aI933
aI934
aI935
aI936
aI937
aI938
aI940
aI941
aI942
aI943
aI945
aI946
aI947
aI948
aI949
aI950
aI951
aI952
aI953
aI954
aI955
aI956
aI957
aI958
aI959
aI960
aI961
aI962
aI963
aI964
aI965
aI966
aI967
aI968
aI969
aI970
aI974
aI975
aI976
aI977
aI979
aI980
aI981
aI982
aI983
aI984
aI985
aI986
aI987
aI988
aI989
aI990
aI991
aI992
aI993
aI994
aI995
aI996
aI997
aI998
aI999
aI1000
aI1001
aI1002
aI1003
aI1004
aI1005
aI1006
aI1007
aI1008
aI1009
aI1010
aI1011
aI1012
aI1014
aI1015
aI1016
aI1017
aI1018
aI1019
aI1020
aI1021
aI1022
aI1023
aI1024
aI1025
aI1026
aI1027
aI1028
aI1029
aI1030
aI1031
aI1032
aI1033
aI1034
aI1035
aI1036
aI1037
aI1039
aI1040
aI1041
aI1042
aI1044
aI1045
aI1046
aI1047
aI1049
aI1050
aI1051
aI1053
aI1054
aI1055
aI1056
aI1057
aI1058
aI1059
aI1060
aI1062
aI1063
aI1064
aI1065
aI1066
aI1067
aI1069
aI1070
aI1071
aI1072
aI1073
aI1074
aI1075
aI1076
aI1077
aI1078
aI1079
aI1080
aI1081
aI1082
aI1083
aI1084
aI1085
aI1086
aI1087
aI1088
aI1090
aI1091
aI1092
aI1093
aI1094
aI1095
aI1096
aI1097
aI1099
aI1100
aI1101
aI1102
aI1103
aI1104
aI1105
aI1107
aI1108
aI1109
aI1110
aI1111
aI1112
aI1113
aI1114
aI1115
aI1116
aI1117
aI1119
aI1120
aI1121
aI1122
aI1123
aI1124
aI1125
aI1126
aI1127
aI1128
aI1129
aI1130
aI1131
aI1132
aI1133
aI1134
aI1135
aI1136
aI1137
aI1138
aI1140
aI1141
aI1142
aI1144
aI1146
aI1147
aI1149
aI1150
aI1151
aI1152
aI1153
aI1154
aI1155
aI1157
aI1158
aI1159
aI1160
aI1161
aI1162
aI1163
aI1164
aI1165
aI1166
aI1167
aI1168
aI1169
aI1170
aI1171
aI1172
aI1173
aI1174
aI1175
aI1176
aI1177
aI1178
aI1179
aI1180
aI1181
aI1182
aI1183
aI1184
aI1186
aI1187
aI1188
aI1189
aI1191
aI1192
aI1193
aI1194
aI1196
aI1197
aI1198
aI1199
aI1200
aI1201
aI1202
aI1203
aI1204
aI1205
aI1206
aI1207
aI1208
aI1209
aI1210
aI1211
aI1212
aI1213
aI1214
aI1215
aI1216
aI1217
aI1218
aI1219
aI1221
aI1222
aI1223
aI1225
aI1226
aI1227
aI1228
aI1229
aI1230
aI1231
aI1232
aI1233
aI1234
aI1235
aI1236
aI1237
aI1238
aI1239
aI1242
aI1246
aI1247
aI1249
aI1251
aI1252
aI1253
aI1254
aI1255
aI1256
aI1258
aI1259
aI1260
aI1262
aI1263
aI1264
aI1265
aI1266
aI1267
aI1269
aI1270
aI1271
aa(lp24
I0
aI2
aI3
aI4
aI6
aI7
aI8
aI9
aI10
aI11
aI12
aI13
aI14
aI16
aI17
aI18
aI19
aI20
aI21
aI22
aI25
aI26
aI27
aI29
aI32
aI35
aI36
aI37
aI38
aI40
aI42
aI43
aI44
aI45
aI46
aI49
aI51
aI52
aI53
aI54
aI55
aI56
aI57
aI58
aI59
aI60
aI62
aI63
aI64
aI66
aI67
aI69
aI70
aI72
aI73
aI74
aI75
aI76
aI77
aI78
aI79
aI80
aI81
aI82
aI85
aI86
aI87
aI88
aI89
aI90
aI91
aI92
aI93
aI94
aI95
aI97
aI98
aI100
aI101
aI102
aI103
aI105
aI106
aI107
aI108
aI109
aI110
aI111
aI112
aI115
aI116
aI117
aI118
aI119
aI120
aI121
aI122
aI123
aI124
aI125
aI127
aI128
aI129
aI130
aI131
aI132
aI134
aI135
aI136
aI137
aI138
aI139
aI140
aI141
aI142
aI143
aI144
aI145
aI146
aI148
aI149
aI150
aI151
aI155
aI156
aI158
aI159
aI164
aI165
aI166
aI167
aI168
aI169
aI171
aI172
aI173
aI174
aI176
aI177
aI178
aI179
aI180
aI181
aI183
aI184
aI187
aI189
aI190
aI191
aI192
aI193
aI194
aI195
aI196
aI197
aI198
aI199
aI200
aI201
aI202
aI203
aI204
aI205
aI207
aI208
aI210
aI211
aI212
aI213
aI214
aI215
aI216
aI217
aI219
aI220
aI221
aI222
aI223
aI224
aI225
aI226
aI227
aI228
aI229
aI230
aI231
aI232
aI233
aI234
aI235
aI236
aI237
aI238
aI239
aI240
aI241
aI242
aI243
aI244
aI245
aI246
aI247
aI248
aI249
aI250
aI251
aI252
aI253
aI254
aI255
aI256
aI257
aI258
aI259
aI260
aI261
aI262
aI264
aI266
aI267
aI268
aI269
aI270
aI271
aI272
aI273
aI274
aI275
aI276
aI277
aI278
aI279
aI280
aI281
aI282
aI283
aI284
aI285
aI286
aI287
aI288
aI289
aI290
aI291
aI292
aI293
aI294
aI295
aI296
aI297
aI299
aI300
aI302
aI304
aI306
aI307
aI308
aI309
aI310
aI313
aI314
aI315
aI316
aI317
aI318
aI319
aI320
aI321
aI322
aI323
aI324
aI325
aI326
aI327
aI328
aI329
aI331
aI332
aI333
aI335
aI336
aI337
aI338
aI339
aI340
aI342
aI343
aI344
aI345
aI346
aI347
aI348
aI349
aI350
aI351
aI354
aI355
aI356
aI357
aI359
aI360
aI362
aI363
aI364
aI366
aI367
aI368
aI370
aI371
aI372
aI374
aI375
aI377
aI378
aI379
aI380
aI381
aI382
aI383
aI384
aI385
aI386
aI387
aI388
aI389
aI391
aI392
aI393
aI395
aI396
aI397
aI398
aI399
aI400
aI401
aI402
aI403
aI404
aI406
aI407
aI408
aI409
aI410
aI413
aI414
aI415
aI416
aI417
aI418
aI419
aI420
aI421
aI422
aI423
aI426
aI427
aI428
aI429
aI430
aI431
aI432
aI433
aI434
aI435
aI436
aI437
aI438
aI440
aI441
aI443
aI444
aI445
aI446
aI447
aI448
aI452
aI453
aI454
aI457
aI458
aI459
aI460
aI461
aI462
aI463
aI464
aI465
aI466
aI468
aI469
aI471
aI472
aI473
aI474
aI475
aI476
aI477
aI478
aI479
aI480
aI481
aI482
aI483
aI484
aI485
aI486
aI487
aI488
aI489
aI491
aI492
aI493
aI494
aI495
aI496
aI497
aI498
aI499
aI500
aI501
aI502
aI503
aI505
aI506
aI508
aI509
aI510
aI511
aI512
aI513
aI514
aI515
aI516
aI517
aI518
aI520
aI521
aI523
aI524
aI525
aI526
aI527
aI528
aI529
aI530
aI531
aI532
aI533
aI534
aI535
aI536
aI537
aI538
aI539
aI541
aI542
aI543
aI544
aI545
aI546
aI547
aI548
aI549
aI550
aI551
aI553
aI554
aI555
aI556
aI557
aI558
aI559
aI561
aI562
aI563
aI564
aI565
aI566
aI567
aI568
aI569
aI570
aI572
aI573
aI574
aI575
aI576
aI577
aI578
aI579
aI580
aI581
aI582
aI583
aI585
aI586
aI588
aI590
aI591
aI592
aI593
aI594
aI595
aI596
aI597
aI599
aI601
aI602
aI604
aI605
aI608
aI609
aI610
aI611
aI612
aI613
aI614
aI615
aI616
aI617
aI618
aI619
aI620
aI621
aI622
aI623
aI625
aI626
aI627
aI628
aI629
aI630
aI631
aI632
aI633
aI634
aI636
aI637
aI638
aI639
aI640
aI641
aI642
aI643
aI644
aI645
aI646
aI648
aI650
aI652
aI653
aI654
aI655
aI656
aI657
aI658
aI659
aI660
aI661
aI662
aI663
aI664
aI665
aI666
aI667
aI668
aI669
aI670
aI671
aI672
aI673
aI674
aI675
aI678
aI679
aI680
aI682
aI683
aI684
aI685
aI688
aI689
aI690
aI691
aI692
aI693
aI694
aI695
aI696
aI697
aI698
aI699
aI700
aI701
aI702
aI704
aI705
aI706
aI707
aI708
aI709
aI710
aI712
aI713
aI714
aI715
aI716
aI718
aI719
aI720
aI721
aI723
aI725
aI726
aI727
aI728
aI729
aI730
aI732
aI733
aI734
aI735
aI736
aI738
aI739
aI740
aI741
aI742
aI743
aI744
aI745
aI746
aI747
aI748
aI749
aI750
aI751
aI753
aI754
aI755
aI756
aI757
aI759
aI760
aI761
aI762
aI763
aI764
aI765
aI766
aI767
aI768
aI769
aI770
aI771
aI772
aI773
aI774
aI775
aI777
aI778
aI779
aI780
aI781
aI782
aI783
aI785
aI786
aI787
aI788
aI789
aI790
aI791
aI792
aI793
aI794
aI795
aI796
aI797
aI798
aI799
aI800
aI802
aI803
aI804
aI805
aI806
aI807
aI808
aI809
aI810
aI811
aI812
aI813
aI815
aI817
aI818
aI819
aI820
aI822
aI824
aI825
aI826
aI827
aI828
aI830
aI832
aI833
aI834
aI835
aI836
aI837
aI838
aI839
aI840
aI841
aI842
aI843
aI844
aI845
aI846
aI847
aI848
aI849
aI850
aI851
aI852
aI853
aI854
aI855
aI856
aI857
aI858
aI860
aI861
aI862
aI863
aI864
aI865
aI867
aI868
aI869
aI870
aI871
aI872
aI873
aI874
aI875
aI876
aI877
aI879
aI880
aI881
aI882
aI883
aI884
aI885
aI886
aI888
aI889
aI891
aI892
aI894
aI895
aI896
aI897
aI898
aI899
aI900
aI901
aI902
aI903
aI904
aI905
aI906
aI907
aI908
aI909
aI910
aI911
aI913
aI914
aI915
aI916
aI917
aI918
aI919
aI920
aI921
aI922
aI923
aI924
aI925
aI927
aI928
aI929
aI931
aI934
aI937
aI938
aI939
aI940
aI941
aI942
aI943
aI944
aI945
aI947
aI949
aI950
aI951
aI952
aI953
aI954
aI955
aI956
aI957
aI959
aI960
aI961
aI962
aI963
aI964
aI965
aI966
aI967
aI968
aI969
aI970
aI971
aI972
aI973
aI974
aI975
aI976
aI977
aI978
aI979
aI980
aI981
aI983
aI985
aI986
aI987
aI988
aI990
aI991
aI992
aI993
aI994
aI996
aI997
aI998
aI1000
aI1001
aI1002
aI1003
aI1004
aI1005
aI1006
aI1007
aI1008
aI1009
aI1010
aI1011
aI1012
aI1013
aI1014
aI1015
aI1017
aI1018
aI1019
aI1020
aI1022
aI1023
aI1025
aI1026
aI1027
aI1028
aI1030
aI1032
aI1033
aI1034
aI1035
aI1036
aI1037
aI1038
aI1040
aI1042
aI1043
aI1045
aI1046
aI1047
aI1048
aI1049
aI1050
aI1051
aI1053
aI1055
aI1056
aI1057
aI1058
aI1059
aI1060
aI1061
aI1062
aI1063
aI1064
aI1065
aI1066
aI1067
aI1068
aI1070
aI1071
aI1072
aI1073
aI1074
aI1075
aI1077
aI1078
aI1079
aI1080
aI1081
aI1082
aI1083
aI1084
aI1085
aI1086
aI1087
aI1088
aI1090
aI1092
aI1093
aI1094
aI1095
aI1096
aI1097
aI1098
aI1099
aI1100
aI1101
aI1102
aI1103
aI1104
aI1105
aI1106
aI1107
aI1108
aI1109
aI1110
aI1111
aI1113
aI1114
aI1115
aI1116
aI1117
aI1118
aI1119
aI1120
aI1121
aI1122
aI1123
aI1124
aI1125
aI1126
aI1127
aI1129
aI1130
aI1131
aI1132
aI1134
aI1136
aI1137
aI1138
aI1139
aI1140
aI1141
aI1142
aI1144
aI1146
aI1147
aI1148
aI1149
aI1150
aI1151
aI1152
aI1153
aI1154
aI1156
aI1157
aI1158
aI1159
aI1160
aI1161
aI1162
aI1163
aI1164
aI1165
aI1168
aI1169
aI1170
aI1171
aI1172
aI1173
aI1174
aI1175
aI1176
aI1177
aI1178
aI1179
aI1181
aI1182
aI1183
aI1184
aI1186
aI1187
aI1188
aI1189
aI1190
aI1191
aI1192
aI1193
aI1194
aI1195
aI1196
aI1197
aI1198
aI1199
aI1200
aI1201
aI1202
aI1203
aI1204
aI1205
aI1207
aI1209
aI1210
aI1212
aI1213
aI1214
aI1215
aI1216
aI1217
aI1218
aI1219
aI1220
aI1221
aI1222
aI1224
aI1225
aI1226
aI1227
aI1228
aI1229
aI1230
aI1231
aI1232
aI1233
aI1235
aI1236
aI1237
aI1238
aI1239
aI1240
aI1241
aI1242
aI1243
aI1245
aI1246
aI1247
aI1249
aI1250
aI1252
aI1253
aI1254
aI1255
aI1256
aI1257
aI1258
aI1260
aI1261
aI1262
aI1263
aI1264
aI1265
aI1266
aI1267
aI1270
aI1271
aas.